(lp0
(lp1
(Vyou
p2
Vnsubj
p3
tp4
a(Vwill
p5
Vaux
p6
tp7
a(Vsound
p8
Vconj_and
p9
tp10
a(Vyou
p11
g3
tp12
a(Vyou
p13
g3
tp14
a(Vwill
p15
g6
tp16
a(Vnot
p17
Vneg
p18
tp19
a(Veasily
p20
Vadvmod
p21
tp22
a(Vobserve
p23
S'TARGET'
p24
tp25
a(Vanalysis
p26
Vprep_without
p27
tp28
a(Vyou
p29
g3
tp30
a(Vwill
p31
g6
tp32
a(Vnot
p33
g18
tp34
aa(lp35
(Vsee
p36
Vccomp
p37
tp38
a(Vcenter
p39
Vnsubj
p40
tp41
a(Vobserve
p42
g24
tp43
a(Vmeeting
p44
Vdobj
p45
tp46
aa(lp47
(Vmean
p48
Vconj_and
p49
tp50
a(Vobserve
p51
g24
tp52
a(Vchild
p53
Vdobj
p54
tp55
aa(lp56
(Vattempt
p57
Vinfmod
p58
tp59
a(Vto
p60
Vaux
p61
tp62
a(Vfirst
p63
Vadvmod
p64
tp65
a(Vobserve
p66
g24
tp67
a(Vthen
p68
Vadvmod
p69
tp70
a(Vexplore
p71
Vdep
p72
tp73
a(Vto
p74
g61
tp75
a(Vto
p76
g61
tp77
a(Vattempt
p78
g58
tp79
a(Vto
p80
g61
tp81
aa(lp82
(Vobserve
p83
g24
tp84
aa(lp85
(Vincrease
p86
Vadvcl
p87
tp88
a(Vso
p89
Vmark
p90
tp91
a(Vthat
p92
Vmark
p93
tp94
a(Vyou
p95
Vnsubj
p96
tp97
a(Vstudent
p98
Vnsubj
p99
tp100
a(Vcan
p101
Vaux
p102
tp103
a(Vobserve
p104
g24
tp105
a(Vposition
p106
Vdobj
p107
tp108
aa(lp109
(Vto
p110
Vaux
p111
tp112
a(Vto
p113
g111
tp114
a(Vcovenant
p115
Vinfmod
p116
tp117
a(Vto
p118
g111
tp119
a(Vobserve
p120
g24
tp121
a(Vperform
p122
Vconj_and
p123
tp124
a(Vwife
p125
Vprep_by
p126
tp127
a(Vcovenant
p128
g116
tp129
aa(lp130
(Vhave
p131
Vxcomp
p132
tp133
a(Vwe
p134
Vxsubj
p135
tp136
a(Vhave
p137
g132
tp138
a(Vto
p139
Vaux
p140
tp141
a(Vto
p142
g140
tp143
a(Vobserve
p144
g24
tp145
a(VConvention
p146
Vdobj
p147
tp148
aa(lp149
(Vif
p150
Vmark
p151
tp152
a(Vwe
p153
Vnsubj
p154
tp155
a(Vobserve
p156
g24
tp157
a(Vwe
p158
g154
tp159
a(Vnotice
p160
Vadvcl
p161
tp162
aa(lp163
(Vyou
p164
Vxsubj
p165
tp166
a(Vyou
p167
g165
tp168
a(Vto
p169
Vaux
p170
tp171
a(Vobserve
p172
g24
tp173
a(Vdevise
p174
Vconj_and
p175
tp176
a(Vnumber
p177
Vdobj
p178
tp179
a(Vto
p180
g170
tp181
a(Vmonitor
p182
Vxcomp
p183
tp184
aa(lp185
(Vreaction
p186
Vdobj
p187
tp188
a(Vwe
p189
Vnsubj
p190
tp191
a(Vobserve
p192
g24
tp193
aa(lp194
(Vwhen
p195
Vadvmod
p196
tp197
a(Vwe
p198
Vnsubj
p199
tp200
a(Vobserve
p201
g24
tp202
a(Vwe
p203
g199
tp204
a(Vobserve
p205
g24
tp206
a(Vwe
p207
g199
tp208
aa(lp209
(VI
p210
Vxsubj
p211
tp212
a(VI
p213
g211
tp214
a(Vable
p215
Vxcomp
p216
tp217
a(Vto
p218
Vaux
p219
tp220
a(Vobserve
p221
g24
tp222
aa(lp223
(Vrelevance
p224
Vprep_of
p225
tp226
a(Vhere
p227
Vadvmod
p228
tp229
a(Vthey
p230
Vnsubj
p231
tp232
a(Valso
p233
Vadvmod
p234
tp235
a(Vobserve
p236
g24
tp237
a(Vreason
p238
Vccomp
p239
tp240
aa(lp241
(Vcould
p242
Vaux
p243
tp244
a(Vhardly
p245
Vadvmod
p246
tp247
a(Vobserve
p248
g24
tp249
a(Valoud
p250
Vadvmod
p251
tp252
a(Vboring
p253
Vccomp
p254
tp255
aa(lp256
(Vcourse
p257
Vprep_in
p258
tp259
a(Vanthropologist
p260
Vnsubj
p261
tp262
a(Vwill
p263
Vaux
p264
tp265
a(Vobserve
p266
g24
tp267
a(Vdetail
p268
Vprep_in
p269
tp270
a(Vwill
p271
g264
tp272
aa(lp273
(Vseries
p274
Vconj_and
p275
tp276
a(Vso
p277
Vdep
p278
tp279
a(Vwe
p280
Vnsubj
p281
tp282
a(Vobserve
p283
g24
tp284
a(Vprogression
p285
Vdobj
p286
tp287
a(Vfrequency
p288
Vprep_in
p289
tp290
aa(lp291
(VI
p292
Vxsubj
p293
tp294
a(Vhave
p295
Vxcomp
p296
tp297
a(Vto
p298
Vaux
p299
tp300
a(Vobserve
p301
g24
tp302
a(Vanything
p303
Vdobj
p304
tp305
a(Vto
p306
g299
tp307
a(Vto
p308
g299
tp309
aa(lp310
(Vsimply
p311
Vadvmod
p312
tp313
a(Vobserve
p314
g24
tp315
aa(lp316
(Vextent
p317
Vprep_to
p318
tp319
a(Vwe
p320
Vnsubj
p321
tp322
a(Vobserve
p323
g24
tp324
aa(lp325
(Vyou
p326
Vxsubj
p327
tp328
a(Vtend
p329
Vxcomp
p330
tp331
a(Vto
p332
Vaux
p333
tp334
a(Vobserve
p335
g24
tp336
aa(lp337
(Vhappen
p338
Vconj_and
p339
tp340
a(Vwe
p341
Vnsubj
p342
tp343
a(Vobserve
p344
g24
tp345
aa(lp346
(Vtrite
p347
Vxcomp
p348
tp349
a(Vto
p350
Vaux
p351
tp352
a(Vobserve
p353
g24
tp354
a(Vto
p355
g351
tp356
aa(lp357
(Vthey
p358
Vnsubj
p359
tp360
a(Vobserve
p361
g24
tp362
aa(lp363
(Vson
p364
Vinfmod
p365
tp366
a(Vread
p367
Vconj_and
p368
tp369
a(Vobserve
p370
g24
tp371
aa(lp372
(Vsee
p373
Vadvcl
p374
tp375
a(Vwe
p376
Vnsubj
p377
tp378
a(Vfirst
p379
Vadvmod
p380
tp381
a(Vobserve
p382
g24
tp383
aa(lp384
(Vhave
p385
Vxcomp
p386
tp387
a(Vto
p388
Vaux
p389
tp390
a(Vobserve
p391
g24
tp392
aa(lp393
(Vobserve
p394
g24
tp395
a(Vrights
p396
Vdobj
p397
tp398
aa(lp399
(Vthey
p400
Vxsubj
p401
tp402
a(Veasy
p403
Vxcomp
p404
tp405
a(Vto
p406
Vaux
p407
tp408
a(Vobserve
p409
g24
tp410
a(Vto
p411
g407
tp412
a(Vthey
p413
g401
tp414
aa(lp415
(Vcapacity
p416
Vinfmod
p417
tp418
a(Vto
p419
Vaux
p420
tp421
a(Vobserve
p422
g24
tp423
a(Vbehavior
p424
Vdobj
p425
tp426
aa(lp427
(Vwill
p428
Vaux
p429
tp430
a(Vobserve
p431
g24
tp432
a(VCode
p433
Vdobj
p434
tp435
a(Vwill
p436
g429
tp437
a(VCode
p438
g434
tp439
aa(lp440
(Vto
p441
Vaux
p442
tp443
a(Vchance
p444
Vinfmod
p445
tp446
a(Vto
p447
g442
tp448
a(Vobserve
p449
g24
tp450
a(Vlot
p451
Vprep_for
p452
tp453
aa(lp454
(Vyou
p455
Vrcmod
p456
tp457
a(Vremain
p458
Vconj_and
p459
tp460
a(Vcould
p461
Vaux
p462
tp463
a(Vobserve
p464
g24
tp465
a(Vyou
p466
g456
tp467
aa(lp468
(Vit
p469
Vxsubj
p470
tp471
a(Vuncommon
p472
Vxcomp
p473
tp474
a(Vto
p475
Vaux
p476
tp477
a(Vobserve
p478
g24
tp479
a(Vpriest
p480
Vdobj
p481
tp482
aa(lp483
(Vto
p484
Vaux
p485
tp486
a(Vobserve
p487
g24
tp488
a(Vceasefire
p489
Vdobj
p490
tp491
a(Vdemobilize
p492
Vadvcl
p493
tp494
aa(lp495
(Vnurse
p496
Vnsubj
p497
tp498
a(Vshould
p499
Vaux
p500
tp501
a(Vobserve
p502
g24
tp503
a(Vskin
p504
Vdobj
p505
tp506
aa(lp507
(Vcounsellor
p508
Vxsubj
p509
tp510
a(Vable
p511
Vxcomp
p512
tp513
a(Vto
p514
Vaux
p515
tp516
a(Vobserve
p517
g24
tp518
a(Vspark
p519
Vccomp
p520
tp521
aa(lp522
(Vto
p523
Vaux
p524
tp525
a(Vfailure
p526
Vinfmod
p527
tp528
a(Vto
p529
g524
tp530
a(Vobserve
p531
g24
tp532
a(Vconduct
p533
Vprep_in
p534
tp535
aa(lp536
(Vto
p537
Vaux
p538
tp539
a(Vto
p540
g538
tp541
a(Vhave
p542
Vconj_and
p543
tp544
a(Vto
p545
g538
tp546
a(Vobserve
p547
g24
tp548
a(Vlanguage
p549
Vdobj
p550
tp551
a(Vto
p552
g538
tp553
a(Vto
p554
g538
tp555
aa(lp556
(Vfailure
p557
Vinfmod
p558
tp559
a(Vto
p560
Vaux
p561
tp562
a(Vobserve
p563
g24
tp564
a(Vto
p565
g561
tp566
a(Vto
p567
g561
tp568
aa(lp569
(Vwill
p570
Vaux
p571
tp572
a(Vsubject
p573
Vprep_to
p574
tp575
a(VAssessment
p576
Vconj_and
p577
tp578
a(Vwe
p579
Vnsubj
p580
tp581
a(Vwill
p582
g571
tp583
a(Vfully
p584
Vadvmod
p585
tp586
a(Vobserve
p587
g24
tp588
aa(lp589
(Vto
p590
Vaux
p591
tp592
a(Vobserve
p593
g24
tp594
a(VCordoba
p595
Vccomp
p596
tp597
aa(lp598
(Vattend
p599
Vparataxis
p600
tp601
a(Vobserve
p602
g24
tp603
a(Vtrial
p604
Vdobj
p605
tp606
aa(lp607
(Vit
p608
Vrcmod
p609
tp610
a(Vcan
p611
Vaux
p612
tp613
a(Vobserve
p614
g24
tp615
aa(lp616
(Vduty
p617
Vinfmod
p618
tp619
a(Vto
p620
Vaux
p621
tp622
a(Vobserve
p623
g24
tp624
a(Vfairness
p625
Vdobj
p626
tp627
aa(lp628
(Vthey
p629
Vxsubj
p630
tp631
a(Vto
p632
Vaux
p633
tp634
a(Vobserve
p635
g24
tp636
a(Vthey
p637
g630
tp638
aa(lp639
(Vinteresting
p640
Vxcomp
p641
tp642
a(Vto
p643
Vaux
p644
tp645
a(Vobserve
p646
g24
tp647
aa(lp648
(Vobserve
p649
g24
tp650
a(Vconductivity
p651
Vdobj
p652
tp653
a(Vhave
p654
Vadvcl
p655
tp656
aa(lp657
(Vobserve
p658
g24
tp659
aa(lp660
(Vspectrum
p661
Vprep_in
p662
tp663
a(Vwe
p664
Vnsubj
p665
tp666
a(Vobserve
p667
g24
tp668
aa(lp669
(Vthat
p670
Vmark
p671
tp672
a(Vshould
p673
Vaux
p674
tp675
a(Vobserve
p676
g24
tp677
a(Vconduct
p678
Vprep_in
p679
tp680
a(Vgrounds
p681
Vprep_on
p682
tp683
aa(lp684
(Vpoint
p685
Vprep_beyond
p686
tp687
a(Vhe
p688
Vnsubj
p689
tp690
a(Vwould
p691
Vaux
p692
tp693
a(Vobserve
p694
g24
tp695
a(Vsomething
p696
Vdobj
p697
tp698
a(Vwould
p699
g692
tp700
a(Vdecrease
p701
Vparataxis
p702
tp703
a(Vhe
p704
g689
tp705
a(Vhe
p706
g689
tp707
a(Vwould
p708
g692
tp709
aa(lp710
(Vit
p711
Vxsubj
p712
tp713
a(Vpossible
p714
Vxcomp
p715
tp716
a(Vto
p717
Vaux
p718
tp719
a(Vobserve
p720
g24
tp721
a(Vshift
p722
Vdobj
p723
tp724
a(Vto
p725
g718
tp726
a(Vto
p727
g718
tp728
aa(lp729
(Vcurious
p730
Vconj_and
p731
tp732
a(Vobserve
p733
g24
tp734
aa(lp735
(Vto
p736
Vaux
p737
tp738
a(Vobserve
p739
g24
tp740
a(Vto
p741
g737
tp742
aa(lp743
(VI
p744
Vnsubj
p745
tp746
a(Vwhere
p747
Vadvmod
p748
tp749
a(VI
p750
g745
tp751
a(Vcould
p752
Vaux
p753
tp754
a(Vobserve
p755
g24
tp756
a(Vnoticeable
p757
Vprepc_without
p758
tp759
aa(lp760
(Vwe
p761
Vnsubj
p762
tp763
a(Vsomething
p764
Vdobj
p765
tp766
a(Vsomething
p767
g765
tp768
a(Vwe
p769
g762
tp770
a(Vcan
p771
Vaux
p772
tp773
a(Vobserve
p774
g24
tp775
a(Vdirectly
p776
Vadvmod
p777
tp778
aa(lp779
(Vit
p780
Vxsubj
p781
tp782
a(Vunwise
p783
Vxcomp
p784
tp785
a(Vto
p786
Vaux
p787
tp788
a(Vobserve
p789
g24
tp790
a(Vonly
p791
Vadvmod
p792
tp793
a(VKorea
p794
Vprep_in
p795
tp796
aa(lp797
(Vwe
p798
Vxsubj
p799
tp800
a(Vto
p801
Vaux
p802
tp803
a(Vwe
p804
g799
tp805
a(Vable
p806
Vxcomp
p807
tp808
a(Vto
p809
g802
tp810
a(Vobserve
p811
g24
tp812
a(Vbehavior
p813
Vdobj
p814
tp815
aa(lp816
(Vto
p817
Vaux
p818
tp819
a(Vendeavor
p820
Vinfmod
p821
tp822
a(Vto
p823
g818
tp824
a(Vobserve
p825
g24
tp826
a(Vwild
p827
Vprep_in
p828
tp829
aa(lp830
(Vadministration
p831
Vxsubj
p832
tp833
a(Vto
p834
Vaux
p835
tp836
a(Vobserve
p837
g24
tp838
a(VConstitution
p839
Vdobj
p840
tp841
aa(lp842
(Vto
p843
Vaux
p844
tp845
a(Vobserve
p846
g24
tp847
a(Vprecaution
p848
Vdobj
p849
tp850
aa(lp851
(Vcan
p852
Vaux
p853
tp854
a(Vwe
p855
Vnsubj
p856
tp857
a(Vwe
p858
g856
tp859
a(Vknow
p860
Vparataxis
p861
tp862
a(Vcan
p863
g853
tp864
a(Vwe
p865
g856
tp866
a(Vobserve
p867
g24
tp868
a(Vwe
p869
g856
tp870
a(Vstudy
p871
Vadvcl
p872
tp873
a(Vwe
p874
g856
tp875
a(Vii
p876
Vdep
p877
tp878
a(Vwe
p879
g856
tp880
a(Vwe
p881
g856
tp882
a(Vcan
p883
g853
tp884
aa(lp885
(Vpace
p886
Vinfmod
p887
tp888
a(Vto
p889
Vaux
p890
tp891
a(Vobserve
p892
g24
tp893
aa(lp894
(VThatcher
p895
Vxsubj
p896
tp897
a(Vto
p898
Vaux
p899
tp900
a(Vobserve
p901
g24
tp902
a(V1982
p903
Vprep_in
p904
tp905
a(Vsafe
p906
Vccomp
p907
tp908
aa(lp909
(Vit
p910
Vxsubj
p911
tp912
a(Vit
p913
g911
tp914
a(Veasy
p915
Vxcomp
p916
tp917
a(Vto
p918
Vaux
p919
tp920
a(Vobserve
p921
g24
tp922
a(Vstand
p923
Vadvcl
p924
tp925
a(Vgenerally
p926
Vadvmod
p927
tp928
a(Vstick
p929
Vconj_or
p930
tp931
a(Vto
p932
g919
tp933
aa(lp934
(Vperhaps
p935
Vdep
p936
tp937
a(Vall
p938
Vnsubj
p939
tp940
a(Vobserve
p941
g24
tp942
a(Vextent
p943
Vdobj
p944
tp945
aa(lp946
(Vwhich
p947
Vnsubj
p948
tp949
a(Vdo
p950
Vaux
p951
tp952
a(Vnot
p953
Vneg
p954
tp955
a(Vadequately
p956
Vadvmod
p957
tp958
a(Vobserve
p959
g24
tp960
aa(lp961
(Vsatellite
p962
Vnsubj
p963
tp964
a(Vwill
p965
Vaux
p966
tp967
a(Vobserve
p968
g24
tp969
a(Vseasonal
p970
Vdobj
p971
tp972
aa(lp973
(Vwe
p974
Vxsubj
p975
tp976
a(Vwe
p977
g975
tp978
a(Vwant
p979
Vxcomp
p980
tp981
a(Vto
p982
Vaux
p983
tp984
a(Vobserve
p985
g24
tp986
a(Vdirectly
p987
Vadvmod
p988
tp989
aa(lp990
(Vto
p991
Vaux
p992
tp993
a(Vchild
p994
Vxsubj
p995
tp996
a(Vhave
p997
Vxcomp
p998
tp999
a(Vto
p1000
g992
tp1001
a(Vobserve
p1002
g24
tp1003
a(Vhe
p1004
Vnsubj
p1005
tp1006
a(Vbehavior
p1007
Vdobj
p1008
tp1009
a(Vto
p1010
g992
tp1011
a(Vto
p1012
g992
tp1013
a(Vsomething
p1014
Vdobj
p1015
tp1016
a(Vhe
p1017
g1005
tp1018
a(Vmust
p1019
Vaux
p1020
tp1021
a(Vobserve
p1022
g24
tp1023
a(Vsomething
p1024
g1015
tp1025
a(Vprivate
p1026
Vdobj
p1027
tp1028
a(Vhe
p1029
g1005
tp1030
a(Vhave
p1031
g998
tp1032
aa(lp1033
(Vescarpment
p1034
Vxsubj
p1035
tp1036
a(Vto
p1037
Vaux
p1038
tp1039
a(Vto
p1040
g1038
tp1041
a(Vobserve
p1042
g24
tp1043
aa(lp1044
(Vwould
p1045
Vaux
p1046
tp1047
a(Vgrateful
p1048
Vadvcl
p1049
tp1050
a(Vif
p1051
Vmark
p1052
tp1053
a(Vyou
p1054
Vnsubj
p1055
tp1056
a(Vwould
p1057
g1046
tp1058
a(Vobserve
p1059
g24
tp1060
a(Vand
p1061
Vcc
p1062
tp1063
a(Vconsult
p1064
Vdep
p1065
tp1066
aa(lp1067
(Vwe
p1068
Vnsubj
p1069
tp1070
a(Vobserve
p1071
g24
tp1072
a(VZapp
p1073
Vdobj
p1074
tp1075
aa(lp1076
(Vto
p1077
Vaux
p1078
tp1079
a(Vplace
p1080
Vinfmod
p1081
tp1082
a(Vto
p1083
g1078
tp1084
a(Vobserve
p1085
g24
tp1086
a(Vphenomenon
p1087
Vdobj
p1088
tp1089
aa(lp1090
(Vh
p1091
Vxsubj
p1092
tp1093
a(Vsufficient
p1094
Vxcomp
p1095
tp1096
a(Vto
p1097
Vaux
p1098
tp1099
a(Vobserve
p1100
g24
tp1101
a(Vdifferentiation
p1102
Vdobj
p1103
tp1104
a(Vmorphogenesis
p1105
Vdobj
p1106
tp1107
a(Vso
p1108
Vdobj
p1109
tp1110
a(Vculture
p1111
Vdobj
p1112
tp1113
aa(lp1114
(Vwe
p1115
Vprep
p1116
tp1117
a(Vobserve
p1118
g24
tp1119
a(Vwe
p1120
g1116
tp1121
a(Vreplace
p1122
Vdep
p1123
tp1124
a(Vwe
p1125
g1116
tp1126
a(Vdrop
p1127
Vdep
p1128
tp1129
a(Vwe
p1130
g1116
tp1131
a(Vagree
p1132
Vdep
p1133
tp1134
a(Vwe
p1135
g1116
tp1136
a(Vwe
p1137
g1116
tp1138
aa(lp1139
(Vto
p1140
Vaux
p1141
tp1142
a(Vobserve
p1143
g24
tp1144
a(Vnecessary
p1145
Vdep
p1146
tp1147
a(Vto
p1148
g1141
tp1149
a(Vto
p1150
g1141
tp1151
aa(lp1152
(Vpanel
p1153
Vxsubj
p1154
tp1155
a(Vto
p1156
Vaux
p1157
tp1158
a(Vto
p1159
g1157
tp1160
a(Vobserve
p1161
g24
tp1162
a(Vodour
p1163
Vdobj
p1164
tp1165
aa(lp1166
(Vwe
p1167
Vnsubj
p1168
tp1169
a(Vobserve
p1170
g24
tp1171
aa(lp1172
(Vtake
p1173
Vconj_and
p1174
tp1175
a(Vobserve
p1176
g24
tp1177
a(Vthose
p1178
Vdobj
p1179
tp1180
aa(lp1181
(Vinclude
p1182
Vxcomp
p1183
tp1184
a(Vto
p1185
Vaux
p1186
tp1187
a(Vobserve
p1188
g24
tp1189
a(Vto
p1190
g1186
tp1191
a(Vto
p1192
g1186
tp1193
aa(lp1194
(Vto
p1195
Vaux
p1196
tp1197
a(Vto
p1198
g1196
tp1199
a(Vfailure
p1200
Vinfmod
p1201
tp1202
a(Vto
p1203
g1196
tp1204
a(Vobserve
p1205
g24
tp1206
a(Vquality
p1207
Vprep_on
p1208
tp1209
aa(lp1210
(Vcan
p1211
Vaux
p1212
tp1213
a(Vobserve
p1214
g24
tp1215
a(Vhappy
p1216
Vccomp
p1217
tp1218
aa(lp1219
(VI
p1220
Vnsubj
p1221
tp1222
a(VI
p1223
g1221
tp1224
a(Vobserve
p1225
g24
tp1226
a(VI
p1227
g1221
tp1228
a(VI
p1229
g1221
tp1230
aa(lp1231
(Vpossible
p1232
Vxcomp
p1233
tp1234
a(Vto
p1235
Vaux
p1236
tp1237
a(Vobserve
p1238
g24
tp1239
aa(lp1240
(Vwe
p1241
Vnsubj
p1242
tp1243
a(Vthat
p1244
Vmark
p1245
tp1246
a(Vthat
p1247
g1245
tp1248
a(Vwe
p1249
g1242
tp1250
a(Vobserve
p1251
g24
tp1252
aa(lp1253
(Vto
p1254
Vaux
p1255
tp1256
a(Vobserve
p1257
g24
tp1258
a(Vto
p1259
g1255
tp1260
aa(lp1261
(Vto
p1262
Vaux
p1263
tp1264
a(Vobserve
p1265
g24
tp1266
a(Vsilence
p1267
Vdobj
p1268
tp1269
a(Vmemory
p1270
Vprep_in
p1271
tp1272
aa(lp1273
(Vshow
p1274
Vparataxis
p1275
tp1276
a(Vhere
p1277
Vadvmod
p1278
tp1279
a(Vwe
p1280
Vnsubj
p1281
tp1282
a(Vobserve
p1283
g24
tp1284
a(Vdifferent
p1285
Vccomp
p1286
tp1287
aa(lp1288
(Vbe
p1289
Vxcomp
p1290
tp1291
a(Vthat
p1292
Vmark
p1293
tp1294
a(Vwe
p1295
Vnsubj
p1296
tp1297
a(Vtoday
p1298
Vtmod
p1299
tp1300
a(Vobserve
p1301
g24
tp1302
a(Vbe
p1303
g1290
tp1304
a(Vthat
p1305
g1293
tp1306
a(Vbe
p1307
g1290
tp1308
a(Vbe
p1309
g1290
tp1310
a(Vwe
p1311
g1296
tp1312
aa(lp1313
(Vthat
p1314
Vmark
p1315
tp1316
a(Vwe
p1317
Vnsubj
p1318
tp1319
a(Vcould
p1320
Vaux
p1321
tp1322
a(Vdirectly
p1323
Vadvmod
p1324
tp1325
a(Vobserve
p1326
g24
tp1327
a(Vperson
p1328
Vdobj
p1329
tp1330
aa(lp1331
(Vnormally
p1332
Vadvmod
p1333
tp1334
a(Vobserve
p1335
g24
tp1336
aa(lp1337
(Vsomething
p1338
Vinfmod
p1339
tp1340
a(Vto
p1341
Vaux
p1342
tp1343
a(Vobserve
p1344
g24
tp1345
aa(lp1346
(Vhappy
p1347
Vxcomp
p1348
tp1349
a(Vto
p1350
Vaux
p1351
tp1352
a(Vobserve
p1353
g24
tp1354
aa(lp1355
(Vopportunity
p1356
Vinfmod
p1357
tp1358
a(Vto
p1359
Vaux
p1360
tp1361
a(Vobserve
p1362
g24
tp1363
a(Vinvolvement
p1364
Vdobj
p1365
tp1366
a(Vto
p1367
g1360
tp1368
aa(lp1369
(Vwe
p1370
Vnsubj
p1371
tp1372
a(Vobserve
p1373
g24
tp1374
a(Vmathematics
p1375
Vdobj
p1376
tp1377
aa(lp1378
(Vobserve
p1379
g24
tp1380
a(Vculture
p1381
Vprep_in
p1382
tp1383
aa(lp1384
(Vwe
p1385
Vnsubj
p1386
tp1387
a(Vshould
p1388
Vaux
p1389
tp1390
a(Valso
p1391
Vadvmod
p1392
tp1393
a(Vobserve
p1394
g24
tp1395
aa(lp1396
(V2
p1397
Vdep
p1398
tp1399
a(Vobserve
p1400
g24
tp1401
a(Vperform
p1402
Vconj_and
p1403
tp1404
aa(lp1405
(Vfail
p1406
Vxcomp
p1407
tp1408
a(Vto
p1409
Vaux
p1410
tp1411
a(Vobserve
p1412
g24
tp1413
a(Vdistinction
p1414
Vdobj
p1415
tp1416
a(Vto
p1417
g1410
tp1418
aa(lp1419
(Vresult
p1420
Vprep_as
p1421
tp1422
a(Vwe
p1423
Vnsubj
p1424
tp1425
a(Vcan
p1426
Vaux
p1427
tp1428
a(Vobserve
p1429
g24
tp1430
a(Vemergence
p1431
Vdobj
p1432
tp1433
aa(lp1434
(Vto
p1435
Vaux
p1436
tp1437
a(Vable
p1438
Vxcomp
p1439
tp1440
a(Vto
p1441
g1436
tp1442
a(Vobserve
p1443
g24
tp1444
a(VGirl
p1445
Vdobj
p1446
tp1447
aa(lp1448
(Vcould
p1449
Vaux
p1450
tp1451
a(Vnot
p1452
Vneg
p1453
tp1454
a(Vgain
p1455
Vconj_and
p1456
tp1457
a(Vcould
p1458
g1450
tp1459
a(Vnot
p1460
g1453
tp1461
a(Vobserve
p1462
g24
tp1463
a(Vnature
p1464
Vdobj
p1465
tp1466
a(Vthere
p1467
Vadvmod
p1468
tp1469
aa(lp1470
(Vduty
p1471
Vinfmod
p1472
tp1473
a(Vto
p1474
Vaux
p1475
tp1476
a(Vobserve
p1477
g24
tp1478
a(Vto
p1479
g1475
tp1480
a(Vduty
p1481
g1472
tp1482
a(Vto
p1483
g1475
tp1484
aa(lp1485
(Vobserve
p1486
g24
tp1487
aa(lp1488
(Vto
p1489
Vaux
p1490
tp1491
a(Vobserve
p1492
g24
tp1493
a(Vto
p1494
g1490
tp1495
aa(lp1496
(VI
p1497
Vnsubj
p1498
tp1499
a(Vexpect
p1500
Vccomp
p1501
tp1502
a(Vthat
p1503
Vmark
p1504
tp1505
a(VI
p1506
g1498
tp1507
a(Vwill
p1508
Vaux
p1509
tp1510
a(Vobserve
p1511
g24
tp1512
a(Vconfidentiality
p1513
Vdobj
p1514
tp1515
aa(lp1516
(Vhelp
p1517
Vxcomp
p1518
tp1519
a(Vto
p1520
Vaux
p1521
tp1522
a(Vobserve
p1523
g24
tp1524
aa(lp1525
(Vopportunity
p1526
Vinfmod
p1527
tp1528
a(Vto
p1529
Vaux
p1530
tp1531
a(Vobserve
p1532
g24
tp1533
aa(lp1534
(Vhe
p1535
Vxsubj
p1536
tp1537
a(Vto
p1538
Vaux
p1539
tp1540
a(Vhe
p1541
g1536
tp1542
a(Vto
p1543
g1539
tp1544
a(Vobserve
p1545
g24
tp1546
a(VItaly
p1547
Vprep_in
p1548
tp1549
aa(lp1550
(Vfreedom
p1551
Vinfmod
p1552
tp1553
a(Vsit
p1554
Vconj_and
p1555
tp1556
a(Vobserve
p1557
g24
tp1558
aa(lp1559
(Vhe
p1560
Vnsubj
p1561
tp1562
a(Vdraw
p1563
Vdep
p1564
tp1565
a(Vit
p1566
Vdobj
p1567
tp1568
a(Vbecause
p1569
Vmark
p1570
tp1571
a(Vdraw
p1572
g1564
tp1573
a(Vit
p1574
g1567
tp1575
a(Vhe
p1576
g1561
tp1577
a(Vmust
p1578
Vaux
p1579
tp1580
a(Vobserve
p1581
g24
tp1582
a(Vit
p1583
g1567
tp1584
a(Vcarefully
p1585
Vadvmod
p1586
tp1587
a(Vit
p1588
g1567
tp1589
a(Vimplant
p1590
Vconj_and
p1591
tp1592
a(Vhe
p1593
g1561
tp1594
a(Vhe
p1595
g1561
tp1596
aa(lp1597
(VI
p1598
Vnsubj
p1599
tp1600
a(Vobserve
p1601
g24
tp1602
aa(lp1603
(Vable
p1604
Vconj_and
p1605
tp1606
a(Vobserve
p1607
g24
tp1608
aa(lp1609
(Vnecessary
p1610
Vdep
p1611
tp1612
a(Vto
p1613
Vaux
p1614
tp1615
a(Vretain
p1616
Vconj_or
p1617
tp1618
a(Vto
p1619
g1614
tp1620
a(Vobserve
p1621
g24
tp1622
a(Vconstraint
p1623
Vdobj
p1624
tp1625
aa(lp1626
(Vgroup
p1627
Vxsubj
p1628
tp1629
a(Vto
p1630
Vaux
p1631
tp1632
a(Vobserve
p1633
g24
tp1634
a(Vrally
p1635
Vdobj
p1636
tp1637
aa(lp1638
(Vcashier
p1639
Vnsubj
p1640
tp1641
a(Vshould
p1642
Vaux
p1643
tp1644
a(Vobserve
p1645
g24
tp1646
a(Vaware
p1647
Vconj_and
p1648
tp1649
aa(lp1650
(Vto
p1651
Vaux
p1652
tp1653
a(Vobserve
p1654
g24
tp1655
a(Vperiod
p1656
Vdobj
p1657
tp1658
aa(lp1659
(Vthey
p1660
Vxsubj
p1661
tp1662
a(Vthey
p1663
g1661
tp1664
a(Vtend
p1665
Vxcomp
p1666
tp1667
a(Vto
p1668
Vaux
p1669
tp1670
a(Vobserve
p1671
g24
tp1672
a(Vthey
p1673
g1661
tp1674
a(Vcontext
p1675
Vprep_in
p1676
tp1677
a(Vthey
p1678
g1661
tp1679
aa(lp1680
(Vit
p1681
Vxsubj
p1682
tp1683
a(Vreasonable
p1684
Vxcomp
p1685
tp1686
a(Vto
p1687
Vaux
p1688
tp1689
a(Vobserve
p1690
g24
tp1691
aa(lp1692
(Vwe
p1693
Vnsubj
p1694
tp1695
a(Vnot
p1696
Vneg
p1697
tp1698
a(Vwe
p1699
g1694
tp1700
a(Vwe
p1701
g1694
tp1702
a(Vsee
p1703
Vconj_but
p1704
tp1705
a(Vdo
p1706
Vaux
p1707
tp1708
a(Vnot
p1709
g1697
tp1710
a(Vreally
p1711
Vadvmod
p1712
tp1713
a(Vobserve
p1714
g24
tp1715
aa(lp1716
(Vshall
p1717
Vaux
p1718
tp1719
a(Vobserve
p1720
g24
tp1721
aa(lp1722
(Vprotect
p1723
Vxcomp
p1724
tp1725
a(Vto
p1726
Vaux
p1727
tp1728
a(Vobserve
p1729
g24
tp1730
aa(lp1731
(Vtime
p1732
Vrcmod
p1733
tp1734
a(Vwe
p1735
Vnsubj
p1736
tp1737
a(Vcan
p1738
Vaux
p1739
tp1740
a(Vobserve
p1741
g24
tp1742
aa(lp1743
(Vbear
p1744
Vconj_and
p1745
tp1746
a(Vobserve
p1747
g24
tp1748
aa(lp1749
(Vcan
p1750
Vaux
p1751
tp1752
a(Vobserve
p1753
g24
tp1754
a(Vthis
p1755
Vdobj
p1756
tp1757
aa(lp1758
(Vpromise
p1759
Vinfmod
p1760
tp1761
a(Vto
p1762
Vaux
p1763
tp1764
a(Vobserve
p1765
g24
tp1766
a(Vneutrality
p1767
Vdobj
p1768
tp1769
aa(lp1770
(VOrton
p1771
Vxsubj
p1772
tp1773
a(Vto
p1774
Vaux
p1775
tp1776
a(Vobserve
p1777
g24
tp1778
aa(lp1779
(Vprocess
p1780
Vrcmod
p1781
tp1782
a(Vlife
p1783
Vprep_throughout
p1784
tp1785
a(Vobserve
p1786
g24
tp1787
a(Vtime
p1788
Vdobj
p1789
tp1790
aa(lp1791
(Vto
p1792
Vaux
p1793
tp1794
a(Vmodify
p1795
Vconj_and
p1796
tp1797
a(Vto
p1798
g1793
tp1799
a(Vobserve
p1800
g24
tp1801
aa(lp1802
(Vcitizenry
p1803
Vnsubj
p1804
tp1805
a(Vwould
p1806
Vaux
p1807
tp1808
a(Vnot
p1809
Vneg
p1810
tp1811
a(Vobserve
p1812
g24
tp1813
a(Veven
p1814
Vadvmod
p1815
tp1816
a(Venforce
p1817
Vconj_or
p1818
tp1819
aa(lp1820
(VI
p1821
Vnsubj
p1822
tp1823
a(Vcould
p1824
Vaux
p1825
tp1826
a(Vobserve
p1827
g24
tp1828
a(Vbehavior
p1829
Vdobj
p1830
tp1831
a(VI
p1832
g1822
tp1833
aa(lp1834
(VNature
p1835
Vdep
p1836
tp1837
a(Vas
p1838
Vmark
p1839
tp1840
a(Vwe
p1841
Vnsubj
p1842
tp1843
a(Vobserve
p1844
g24
tp1845
a(Vit
p1846
Vdobj
p1847
tp1848
aa(lp1849
(Vexample
p1850
Vprep_for
p1851
tp1852
a(Vnobody
p1853
Vnsubj
p1854
tp1855
a(Vcould
p1856
Vaux
p1857
tp1858
a(Vpossibly
p1859
Vadvmod
p1860
tp1861
a(Vobserve
p1862
g24
tp1863
a(Vmatter
p1864
Vprep_as
p1865
tp1866
a(Vmale
p1867
Vccomp
p1868
tp1869
aa(lp1870
(VI
p1871
Vxsubj
p1872
tp1873
a(Vcome
p1874
Vxcomp
p1875
tp1876
a(Vto
p1877
Vaux
p1878
tp1879
a(Vto
p1880
g1878
tp1881
a(Vobserve
p1882
g24
tp1883
a(Vuse
p1884
Vccomp
p1885
tp1886
a(Vto
p1887
g1878
tp1888
a(Vsupport
p1889
Vccomp
p1890
tp1891
a(Vexpress
p1892
Vccomp
p1893
tp1894
aa(lp1895
(Vto
p1896
Vaux
p1897
tp1898
a(Vobserve
p1899
g24
tp1900
aa(lp1901
(Vdevelop
p1902
Vadvcl
p1903
tp1904
a(Vwhere
p1905
Vadvmod
p1906
tp1907
a(Vcan
p1908
Vaux
p1909
tp1910
a(Vobserve
p1911
g24
tp1912
a(Vcorrect
p1913
Vconj_and
p1914
tp1915
a(Vbehavior
p1916
Vdobj
p1917
tp1918
aa(lp1919
(Vit
p1920
Vnsubj
p1921
tp1922
a(Vclear
p1923
Vccomp
p1924
tp1925
a(Vthat
p1926
Vmark
p1927
tp1928
a(Vit
p1929
g1921
tp1930
a(Vwould
p1931
Vaux
p1932
tp1933
a(Vlonger
p1934
Vadvmod
p1935
tp1936
a(Vobserve
p1937
g24
tp1938
a(Vceasefire
p1939
Vdobj
p1940
tp1941
aa(lp1942
(VI
p1943
Vxsubj
p1944
tp1945
a(Vready
p1946
Vxcomp
p1947
tp1948
a(Vto
p1949
Vaux
p1950
tp1951
a(Vobserve
p1952
g24
tp1953
a(Vagain
p1954
Vadvmod
p1955
tp1956
aa(lp1957
(Vperson
p1958
Vxsubj
p1959
tp1960
a(Vpause
p1961
Vxcomp
p1962
tp1963
a(Vto
p1964
Vaux
p1965
tp1966
a(Vobserve
p1967
g24
tp1968
aa(lp1969
(Vbe
p1970
Vxcomp
p1971
tp1972
a(Vto
p1973
Vaux
p1974
tp1975
a(Vwe
p1976
Vxsubj
p1977
tp1978
a(Vit
p1979
Vdobj
p1980
tp1981
a(Vbe
p1982
g1971
tp1983
a(Vit
p1984
g1980
tp1985
a(Vbe
p1986
g1971
tp1987
a(Vwe
p1988
g1977
tp1989
a(Vbe
p1990
g1971
tp1991
a(Vto
p1992
g1974
tp1993
a(Vobserve
p1994
g24
tp1995
a(Vit
p1996
g1980
tp1997
aa(lp1998
(Vone
p1999
Vnsubj
p2000
tp2001
a(Vone
p2002
g2000
tp2003
a(Vone
p2004
g2000
tp2005
a(Vmust
p2006
Vaux
p2007
tp2008
a(Vone
p2009
g2000
tp2010
a(Vmust
p2011
g2007
tp2012
a(Vfirst
p2013
Vadvmod
p2014
tp2015
a(Vobserve
p2016
g24
tp2017
a(Vdiscover
p2018
Vadvcl
p2019
tp2020
aa(lp2021
(Vcomplete
p2022
Vadvcl
p2023
tp2024
a(Vwe
p2025
Vnsubj
p2026
tp2027
a(Vmay
p2028
Vaux
p2029
tp2030
a(Vobserve
p2031
g24
tp2032
a(Vmay
p2033
g2029
tp2034
a(Vroot
p2035
Vroot
p2036
tp2037
aa(lp2038
(VV
p2039
Vxsubj
p2040
tp2041
a(Vto
p2042
Vaux
p2043
tp2044
a(Vobserve
p2045
g24
tp2046
aa(lp2047
(Vstudent
p2048
Vxsubj
p2049
tp2050
a(Vto
p2051
Vaux
p2052
tp2053
a(Vobserve
p2054
g24
tp2055
a(Vfish
p2056
Vdobj
p2057
tp2058
aa(lp2059
(Vyou
p2060
Vnsubj
p2061
tp2062
a(Vto
p2063
Vaux
p2064
tp2065
a(Vobserve
p2066
g24
tp2067
a(Vyou
p2068
g2061
tp2069
a(Vto
p2070
g2064
tp2071
aa(lp2072
(Vi
p2073
Vdep
p2074
tp2075
a(Vcan
p2076
Vaux
p2077
tp2078
a(Vobserve
p2079
g24
tp2080
a(Vstudy
p2081
Vconj_and
p2082
tp2083
aa(lp2084
(Vit
p2085
Vnsubj
p2086
tp2087
a(Vit
p2088
g2086
tp2089
a(V'll
p2090
Vaux
p2091
tp2092
a(Vobserve
p2093
g24
tp2094
aa(lp2095
(VI
p2096
Vxsubj
p2097
tp2098
a(Vwish
p2099
Vxcomp
p2100
tp2101
a(Vto
p2102
Vaux
p2103
tp2104
a(Vobserve
p2105
g24
tp2106
a(VI
p2107
g2097
tp2108
a(Vsee
p2109
Vccomp
p2110
tp2111
aa(lp2112
(Veither!Lastly
p2113
Vnsubj
p2114
tp2115
a(Vdo
p2116
Vaux
p2117
tp2118
a(Vobserve
p2119
g24
tp2120
aa(lp2121
(Vpossible
p2122
Vxcomp
p2123
tp2124
a(Vlook
p2125
Vconj_and
p2126
tp2127
a(Vobserve
p2128
g24
tp2129
a(Vself-destructive
p2130
Vccomp
p2131
tp2132
aa(lp2133
(Vinteresting
p2134
Vxcomp
p2135
tp2136
a(Vto
p2137
Vaux
p2138
tp2139
a(Vobserve
p2140
g24
tp2141
a(Vto
p2142
g2138
tp2143
a(Vto
p2144
g2138
tp2145
aa(lp2146
(Vopportunity
p2147
Vinfmod
p2148
tp2149
a(Vto
p2150
Vaux
p2151
tp2152
a(Vobserve
p2153
g24
tp2154
a(Vrange
p2155
Vdobj
p2156
tp2157
aa(lp2158
(Vobserve
p2159
g24
tp2160
a(Vcomplete
p2161
Vacomp
p2162
tp2163
a(Vsilence
p2164
Vnsubj
p2165
tp2166
aa(lp2167
(Vcommitment
p2168
Vinfmod
p2169
tp2170
a(Vto
p2171
Vaux
p2172
tp2173
a(Vobserve
p2174
g24
tp2175
a(Vto
p2176
g2172
tp2177
aa(lp2178
(Vobserve
p2179
g24
tp2180
a(Vjust
p2181
Vadvmod
p2182
tp2183
aa(lp2184
(Vyou
p2185
Vnsubj
p2186
tp2187
a(Vyou
p2188
g2186
tp2189
a(Vsomewhere
p2190
Vrcmod
p2191
tp2192
a(Vwhere
p2193
Vadvmod
p2194
tp2195
a(Vyou
p2196
g2186
tp2197
a(Vcan
p2198
Vaux
p2199
tp2200
a(Veasily
p2201
Vadvmod
p2202
tp2203
a(Vobserve
p2204
g24
tp2205
a(Vcar
p2206
Vdobj
p2207
tp2208
aa(lp2209
(Vit
p2210
Vxsubj
p2211
tp2212
a(Vnecessary
p2213
Vxcomp
p2214
tp2215
a(Vto
p2216
Vaux
p2217
tp2218
a(Vobserve
p2219
g24
tp2220
a(Vdo
p2221
Vccomp
p2222
tp2223
a(Vto
p2224
g2217
tp2225
aa(lp2226
(Vall
p2227
Vrcmod
p2228
tp2229
a(Vwe
p2230
Vnsubj
p2231
tp2232
a(Vcan
p2233
Vaux
p2234
tp2235
a(Vobserve
p2236
g24
tp2237
a(Vgather
p2238
Vconj_and
p2239
tp2240
a(Vfrom
p2241
Vprep
p2242
tp2243
aa(lp2244
(Vcare
p2245
Vxcomp
p2246
tp2247
a(Vstep
p2248
Vconj_and
p2249
tp2250
a(Vobserve
p2251
g24
tp2252
a(Vyourself
p2253
Vprep_for
p2254
tp2255
aa(lp2256
(Vsort
p2257
Vdobj
p2258
tp2259
a(Vlover
p2260
Vnsubj
p2261
tp2262
a(Vwould
p2263
Vaux
p2264
tp2265
a(Vobserve
p2266
g24
tp2267
aa(lp2268
(Vpeople
p2269
Vxsubj
p2270
tp2271
a(Vable
p2272
Vxcomp
p2273
tp2274
a(Vto
p2275
Vaux
p2276
tp2277
a(Vobserve
p2278
g24
tp2279
aa(lp2280
(Vto
p2281
Vaux
p2282
tp2283
a(Vobserve
p2284
g24
tp2285
a(Vdecade
p2286
Vprep_as
p2287
tp2288
a(Vto
p2289
g2282
tp2290
a(Vincorporate
p2291
Vconj_and
p2292
tp2293
aa(lp2294
(Vobserve
p2295
g24
tp2296
a(Vyou
p2297
Vdobj
p2298
tp2299
aa(lp2300
(Vthink
p2301
Vccomp
p2302
tp2303
a(Vyou
p2304
Vnsubj
p2305
tp2306
a(Vsit
p2307
Vconj_and
p2308
tp2309
a(Vobserve
p2310
g24
tp2311
aa(lp2312
(Vto
p2313
Vaux
p2314
tp2315
a(Vobserve
p2316
g24
tp2317
a(Vlist
p2318
Vconj_and
p2319
tp2320
aa(lp2321
(Vto
p2322
Vaux
p2323
tp2324
a(Vresident
p2325
Vxsubj
p2326
tp2327
a(Vto
p2328
g2323
tp2329
a(Vobserve
p2330
g24
tp2331
a(Vblink
p2332
Vxcomp
p2333
tp2334
a(Vmannerism
p2335
Vxcomp
p2336
tp2337
aa(lp2338
(Vto
p2339
Vaux
p2340
tp2341
a(Vperson
p2342
Vxsubj
p2343
tp2344
a(Vable
p2345
Vxcomp
p2346
tp2347
a(Vto
p2348
g2340
tp2349
a(Vobserve
p2350
g24
tp2351
a(Vrelation
p2352
Vdobj
p2353
tp2354
aa(lp2355
(Vobjectively
p2356
Vdep
p2357
tp2358
a(Vobserve
p2359
g24
tp2360
a(Vdo
p2361
Vccomp
p2362
tp2363
aa(lp2364
(Vto
p2365
Vaux
p2366
tp2367
a(Vtest
p2368
Vconj_and
p2369
tp2370
a(Vto
p2371
g2366
tp2372
a(Vsecondly
p2373
Vadvmod
p2374
tp2375
a(Vto
p2376
g2366
tp2377
a(Vobserve
p2378
g24
tp2379
a(Vaction
p2380
Vprep_in
p2381
tp2382
aa(lp2383
(Vknow
p2384
Vparataxis
p2385
tp2386
a(Vactually
p2387
Vadvmod
p2388
tp2389
a(Vob
p2390
Vnsubj
p2391
tp2392
a(Vobserve
p2393
g24
tp2394
aa(lp2395
(Vto
p2396
Vaux
p2397
tp2398
a(Vobserve
p2399
g24
tp2400
a(Vto
p2401
g2397
tp2402
a(Vstudy
p2403
Vccomp
p2404
tp2405
aa(lp2406
(Vlook
p2407
Vconj_and
p2408
tp2409
a(Vobserve
p2410
g24
tp2411
a(Vuse
p2412
Vccomp
p2413
tp2414
aa(lp2415
(Vobserve
p2416
g24
tp2417
a(Vlanguage
p2418
Vdobj
p2419
tp2420
a(Vdistance
p2421
Vprep_at
p2422
tp2423
aa(lp2424
(Vto
p2425
Vaux
p2426
tp2427
a(Vobserve
p2428
g24
tp2429
a(Vway
p2430
Vdobj
p2431
tp2432
a(Vto
p2433
g2426
tp2434
aa(lp2435
(V11
p2436
Vxsubj
p2437
tp2438
a(Vto
p2439
Vaux
p2440
tp2441
a(Vobserve
p2442
g24
tp2443
a(Vframework
p2444
Vdobj
p2445
tp2446
a(Vsettlement
p2447
Vprep_for
p2448
tp2449
aa(lp2450
(Vsadness
p2451
Vxsubj
p2452
tp2453
a(Vto
p2454
Vaux
p2455
tp2456
a(Vobserve
p2457
g24
tp2458
a(Vdevastation
p2459
Vdobj
p2460
tp2461
aa(lp2462
(Vsplit
p2463
Vadvcl
p2464
tp2465
a(Vthey
p2466
Vnsubj
p2467
tp2468
a(Vif
p2469
Vmark
p2470
tp2471
a(Vthey
p2472
g2467
tp2473
a(Vnot
p2474
Vneg
p2475
tp2476
a(Vobserve
p2477
g24
tp2478
a(Vvow
p2479
Vdobj
p2480
tp2481
a(Vthey
p2482
g2467
tp2483
a(Vsplit
p2484
g2464
tp2485
aa(lp2486
(Vyou
p2487
Vnsubj
p2488
tp2489
a(Vcan
p2490
Vaux
p2491
tp2492
a(Vsee
p2493
Vconj_but
p2494
tp2495
a(Vyou
p2496
g2488
tp2497
a(Vcan
p2498
g2491
tp2499
a(Vobserve
p2500
g24
tp2501
a(Veffect
p2502
Vdobj
p2503
tp2504
aa(lp2505
(Vthing
p2506
Vinfmod
p2507
tp2508
a(Vto
p2509
Vaux
p2510
tp2511
a(Vobserve
p2512
g24
tp2513
a(Vto
p2514
g2510
tp2515
aa(lp2516
(Vwe
p2517
Vnsubj
p2518
tp2519
a(Vcome
p2520
Vconj_and
p2521
tp2522
a(Vobserve
p2523
g24
tp2524
a(Vbehavior
p2525
Vdobj
p2526
tp2527
a(Vwe
p2528
g2518
tp2529
a(Vlove
p2530
Vadvcl
p2531
tp2532
a(Vwe
p2533
g2518
tp2534
aa(lp2535
(Vthere
p2536
Vinfmod
p2537
tp2538
a(Vto
p2539
Vaux
p2540
tp2541
a(Vobserve
p2542
g24
tp2543
a(Vwish
p2544
Vccomp
p2545
tp2546
a(Vto
p2547
g2540
tp2548
aa(lp2549
(Vplenty
p2550
Vinfmod
p2551
tp2552
a(Vto
p2553
Vaux
p2554
tp2555
a(Vobserve
p2556
g24
tp2557
a(Vinterested
p2558
Vccomp
p2559
tp2560
aa(lp2561
(Vto
p2562
Vaux
p2563
tp2564
a(Vobserve
p2565
g24
tp2566
aa(lp2567
(Vto
p2568
Vaux
p2569
tp2570
a(Vwho
p2571
Vxsubj
p2572
tp2573
a(Vto
p2574
g2569
tp2575
a(Vto
p2576
g2569
tp2577
a(Vobserve
p2578
g24
tp2579
aa(lp2580
(Vto
p2581
Vaux
p2582
tp2583
a(Vobserve
p2584
g24
tp2585
a(Vwork
p2586
Vprep_at
p2587
tp2588
a(Vto
p2589
g2582
tp2590
a(Vlook
p2591
Vconj_and
p2592
tp2593
aa(lp2594
(Vwife
p2595
Vinfmod
p2596
tp2597
a(Vto
p2598
Vaux
p2599
tp2600
a(Vobserve
p2601
g24
tp2602
a(Vperform
p2603
Vconj_and
p2604
tp2605
a(Vto
p2606
g2599
tp2607
aa(lp2608
(Vannihilation
p2609
Vxsubj
p2610
tp2611
a(Vto
p2612
Vaux
p2613
tp2614
a(Vobserve
p2615
g24
tp2616
aa(lp2617
(VMiles
p2618
Vxsubj
p2619
tp2620
a(Vto
p2621
Vaux
p2622
tp2623
a(Vobserve
p2624
g24
tp2625
aa(lp2626
(Vto
p2627
Vaux
p2628
tp2629
a(Vobserve
p2630
g24
tp2631
aa(lp2632
(Vto
p2633
Vaux
p2634
tp2635
a(Vthey
p2636
Vxsubj
p2637
tp2638
a(Vto
p2639
g2634
tp2640
a(Vobserve
p2641
g24
tp2642
aa(lp2643
(Vto
p2644
Vaux
p2645
tp2646
a(Vpattern
p2647
Vxsubj
p2648
tp2649
a(Vto
p2650
g2645
tp2651
a(Vobserve
p2652
g24
tp2653
a(Vto
p2654
g2645
tp2655
aa(lp2656
(Vwe
p2657
Vxsubj
p2658
tp2659
a(Vwe
p2660
g2658
tp2661
a(Vneed
p2662
Vxcomp
p2663
tp2664
a(Vto
p2665
Vaux
p2666
tp2667
a(Vobserve
p2668
g24
tp2669
a(Vreflect
p2670
Vconj_and
p2671
tp2672
a(Vupon
p2673
Vprep
p2674
tp2675
aa(lp2676
(Vto
p2677
Vaux
p2678
tp2679
a(VCharles
p2680
Vxsubj
p2681
tp2682
a(Vto
p2683
g2678
tp2684
a(Vobserve
p2685
g24
tp2686
a(Vask
p2687
Vconj_and
p2688
tp2689
a(Vit
p2690
Vprep_about
p2691
tp2692
aa(lp2693
(Vtongue
p2694
Vinfmod
p2695
tp2696
a(Vto
p2697
Vaux
p2698
tp2699
a(Vobserve
p2700
g24
tp2701
a(Vtrustworthy
p2702
Vdep
p2703
tp2704
aa(lp2705
(Vto
p2706
Vaux
p2707
tp2708
a(Vobserve
p2709
g24
tp2710
a(Vnumber
p2711
Vdobj
p2712
tp2713
aa(lp2714
(Vwhat
p2715
Vdep
p2716
tp2717
a(Vwe
p2718
Vnsubj
p2719
tp2720
a(Vobserve
p2721
g24
tp2722
a(Vscale
p2723
Vprep_on
p2724
tp2725
aa(lp2726
(Vfail
p2727
Vxcomp
p2728
tp2729
a(Vto
p2730
Vaux
p2731
tp2732
a(Vobserve
p2733
g24
tp2734
a(Vright
p2735
Vdobj
p2736
tp2737
a(Vto
p2738
g2731
tp2739
aa(lp2740
(Vpoint
p2741
Vxsubj
p2742
tp2743
a(Vto
p2744
Vaux
p2745
tp2746
a(Vobserve
p2747
g24
tp2748
a(Vto
p2749
g2745
tp2750
a(Videntify
p2751
Vxcomp
p2752
tp2753
aa(lp2754
(Vpart
p2755
Vxsubj
p2756
tp2757
a(Vto
p2758
Vaux
p2759
tp2760
a(Vobserve
p2761
g24
tp2762
aa(lp2763
(Vtherefore
p2764
Vadvmod
p2765
tp2766
a(Vobserve
p2767
g24
tp2768
aa(lp2769
(Vlearn
p2770
Vdep
p2771
tp2772
a(Vlearn
p2773
g2771
tp2774
a(Vmust
p2775
Vaux
p2776
tp2777
a(Vobserve
p2778
g24
tp2779
a(Vquality
p2780
Vdobj
p2781
tp2782
aa(lp2783
(Vto
p2784
Vaux
p2785
tp2786
a(Vto
p2787
g2785
tp2788
a(Vobserve
p2789
g24
tp2790
a(Vworld
p2791
Vdobj
p2792
tp2793
aa(lp2794
(Vput
p2795
Vdep
p2796
tp2797
a(VMassingham
p2798
Vnsubj
p2799
tp2800
a(Vhappen
p2801
Vconj_and
p2802
tp2803
a(Vobserve
p2804
g24
tp2805
aa(lp2806
(Vto
p2807
Vaux
p2808
tp2809
a(Vline
p2810
Vxsubj
p2811
tp2812
a(Vline
p2813
g2811
tp2814
a(Vto
p2815
g2808
tp2816
a(Vobserve
p2817
g24
tp2818
a(Vexplore
p2819
Vconj_and
p2820
tp2821
aa(lp2822
(Vwe
p2823
Vrcmod
p2824
tp2825
a(Vwould
p2826
Vaux
p2827
tp2828
a(Vnever
p2829
Vneg
p2830
tp2831
a(Vobserve
p2832
g24
tp2833
aa(lp2834
(Vhelpful
p2835
Vxcomp
p2836
tp2837
a(Vto
p2838
Vaux
p2839
tp2840
a(Vobserve
p2841
g24
tp2842
a(Vcounter
p2843
Vconj_and
p2844
tp2845
a(Vto
p2846
g2839
tp2847
a(Vrecovery
p2848
Vprep_to
p2849
tp2850
aa(lp2851
(Vto
p2852
Vaux
p2853
tp2854
a(Vable
p2855
Vxcomp
p2856
tp2857
a(Vto
p2858
g2853
tp2859
a(Vobserve
p2860
g24
tp2861
aa(lp2862
(Vto
p2863
Vaux
p2864
tp2865
a(Vopportunity
p2866
Vinfmod
p2867
tp2868
a(Vto
p2869
g2864
tp2870
a(Vobserve
p2871
g24
tp2872
a(Venvy
p2873
Vdobj
p2874
tp2875
aa(lp2876
(Vthat
p2877
Vmark
p2878
tp2879
a(Vone
p2880
Vnsubj
p2881
tp2882
a(Vcan
p2883
Vaux
p2884
tp2885
a(Vobserve
p2886
g24
tp2887
aa(lp2888
(Vwe
p2889
Vnsubj
p2890
tp2891
a(Vcan
p2892
Vaux
p2893
tp2894
a(Vobserve
p2895
g24
tp2896
a(Vbark
p2897
Vdobj
p2898
tp2899
a(Vcolor
p2900
Vdobj
p2901
tp2902
aa(lp2903
(Vyou
p2904
Vnsubj
p2905
tp2906
a(Vwatch
p2907
Vadvcl
p2908
tp2909
a(Vyou
p2910
g2905
tp2911
a(Vobserve
p2912
g24
tp2913
aa(lp2914
(VGot
p2915
Vxcomp
p2916
tp2917
a(Vto
p2918
Vaux
p2919
tp2920
a(Vobserve
p2921
g24
tp2922
aa(lp2923
(Vfirst
p2924
Vadvmod
p2925
tp2926
a(Vobserve
p2927
g24
tp2928
a(Voptimal
p2929
Vccomp
p2930
tp2931
aa(lp2932
(Vmore
p2933
Vdep
p2934
tp2935
a(Vthat
p2936
Vdep
p2937
tp2938
a(Vobserve
p2939
g24
tp2940
a(Vmore
p2941
g2934
tp2942
a(Vintricate
p2943
Vxcomp
p2944
tp2945
aa(lp2946
(Vway
p2947
Vprep_in
p2948
tp2949
a(Vtherapist
p2950
Vnsubj
p2951
tp2952
a(Vcan
p2953
Vaux
p2954
tp2955
a(Vobserve
p2956
g24
tp2957
a(Vexplain
p2958
Vconj_and
p2959
tp2960
aa(lp2961
(Vto
p2962
Vaux
p2963
tp2964
a(Vtendency
p2965
Vxsubj
p2966
tp2967
a(Vto
p2968
g2963
tp2969
a(Vobserve
p2970
g24
tp2971
aa(lp2972
(Vhe
p2973
Vxsubj
p2974
tp2975
a(Vhe
p2976
g2974
tp2977
a(Vto
p2978
Vaux
p2979
tp2980
a(Vobserve
p2981
g24
tp2982
a(Vto
p2983
g2979
tp2984
a(Vfor
p2985
Vdep
p2986
tp2987
a(Vto
p2988
g2979
tp2989
a(Vto
p2990
g2979
tp2991
aa(lp2992
(Vwe
p2993
Vxsubj
p2994
tp2995
a(Vwe
p2996
g2994
tp2997
a(Vexpect
p2998
Vxcomp
p2999
tp3000
a(Vto
p3001
Vaux
p3002
tp3003
a(Vobserve
p3004
g24
tp3005
aa(lp3006
(Ver
p3007
Vdep
p3008
tp3009
a(Ver
p3010
g3008
tp3011
a(Vas
p3012
Vmark
p3013
tp3014
a(VI
p3015
Vnsubj
p3016
tp3017
a(Vobserve
p3018
g24
tp3019
a(Vsort
p3020
Vdep
p3021
tp3022
aa(lp3023
(Vto
p3024
Vaux
p3025
tp3026
a(VOctober
p3027
Vxsubj
p3028
tp3029
a(Vto
p3030
g3025
tp3031
a(Vobserve
p3032
g24
tp3033
aa(lp3034
(Vit
p3035
Vxsubj
p3036
tp3037
a(Vinteresting
p3038
Vxcomp
p3039
tp3040
a(Vto
p3041
Vaux
p3042
tp3043
a(Vobserve
p3044
g24
tp3045
aa(lp3046
(Vwe
p3047
Vnsubj
p3048
tp3049
a(Vobserve
p3050
g24
tp3051
a(Vwe
p3052
g3048
tp3053
a(Vfind
p3054
Vadvcl
p3055
tp3056
aa(lp3057
(Vinteresting
p3058
Vxcomp
p3059
tp3060
a(Vto
p3061
Vaux
p3062
tp3063
a(Vobserve
p3064
g24
tp3065
a(Vhow
p3066
Vadvmod
p3067
tp3068
a(Vusage
p3069
Vdobj
p3070
tp3071
aa(lp3072
(Vto
p3073
Vaux
p3074
tp3075
a(Vto
p3076
g3074
tp3077
a(Vintroduce
p3078
Vxcomp
p3079
tp3080
a(Vto
p3081
g3074
tp3082
a(Vobserve
p3083
g24
tp3084
aa(lp3085
(Vability
p3086
Vinfmod
p3087
tp3088
a(Vto
p3089
Vaux
p3090
tp3091
a(Vobserve
p3092
g24
tp3093
aa(lp3094
(Vwe
p3095
Vnsubj
p3096
tp3097
a(Vobserve
p3098
g24
tp3099
a(Vuniverse
p3100
Vprep_in
p3101
tp3102
aa(lp3103
(Vhave
p3104
Vxcomp
p3105
tp3106
a(Vto
p3107
Vaux
p3108
tp3109
a(Vobserve
p3110
g24
tp3111
aa(lp3112
(Vfunction
p3113
Vxsubj
p3114
tp3115
a(Vto
p3116
Vaux
p3117
tp3118
a(Vobserve
p3119
g24
tp3120
a(Vcounter
p3121
Vconj_and
p3122
tp3123
aa(lp3124
(Vto
p3125
Vaux
p3126
tp3127
a(Vobserve
p3128
g24
tp3129
a(Vworld
p3130
Vdobj
p3131
tp3132
a(Vrecord
p3133
Vconj_and
p3134
tp3135
aa(lp3136
(Vcould
p3137
Vaux
p3138
tp3139
a(Vbeing
p3140
Vnsubj
p3141
tp3142
a(Vcould
p3143
g3138
tp3144
a(Vobserve
p3145
g24
tp3146
a(Vstate
p3147
Vdobj
p3148
tp3149
aa(lp3150
(Vit
p3151
Vxsubj
p3152
tp3153
a(Vpossible
p3154
Vxcomp
p3155
tp3156
a(Vto
p3157
Vaux
p3158
tp3159
a(Vobserve
p3160
g24
tp3161
aa(lp3162
(Vfirm
p3163
Vnsubj
p3164
tp3165
a(Vcan
p3166
Vaux
p3167
tp3168
a(Vobserve
p3169
g24
tp3170
a(Vrelationship
p3171
Vdobj
p3172
tp3173
aa(lp3174
(VI
p3175
Vnsubj
p3176
tp3177
a(Vobserve
p3178
g24
tp3179
a(Vlearn
p3180
Vconj_but
p3181
tp3182
a(Vdiscover
p3183
Vconj_and
p3184
tp3185
aa(lp3186
(Vit
p3187
Vxsubj
p3188
tp3189
a(Vpossible
p3190
Vxcomp
p3191
tp3192
a(Vto
p3193
Vaux
p3194
tp3195
a(Vaccurately
p3196
Vadvmod
p3197
tp3198
a(Vobserve
p3199
g24
tp3200
a(Vbehavior
p3201
Vdobj
p3202
tp3203
aa(lp3204
(Vsee
p3205
Vadvcl
p3206
tp3207
a(Vwe
p3208
Vnsubj
p3209
tp3210
a(Vfirst
p3211
Vadvmod
p3212
tp3213
a(Vobserve
p3214
g24
tp3215
a(Vrecur
p3216
Vccomp
p3217
tp3218
aa(lp3219
(Vshe
p3220
Vxsubj
p3221
tp3222
a(Vto
p3223
Vaux
p3224
tp3225
a(Vshe
p3226
g3221
tp3227
a(Vto
p3228
g3224
tp3229
a(Vobserve
p3230
g24
tp3231
a(Vcomic
p3232
Vccomp
p3233
tp3234
aa(lp3235
(VKrimsky
p3236
Vxsubj
p3237
tp3238
a(Vto
p3239
Vaux
p3240
tp3241
a(Vobserve
p3242
g24
tp3243
a(Vaction
p3244
Vprep_in
p3245
tp3246
aa(lp3247
(Vwhat
p3248
Vdobj
p3249
tp3250
a(Vwe
p3251
Vnsubj
p3252
tp3253
a(Vobserve
p3254
g24
tp3255
a(Vwe
p3256
g3252
tp3257
a(Vdifference
p3258
Vcsubj
p3259
tp3260
aa(lp3261
(Vdismayed
p3262
Vxcomp
p3263
tp3264
a(Vto
p3265
Vaux
p3266
tp3267
a(Vobserve
p3268
g24
tp3269
a(Vto
p3270
g3266
tp3271
a(Vto
p3272
g3266
tp3273
aa(lp3274
(Vagree
p3275
Vprepc_with
p3276
tp3277
a(Vwhat
p3278
Vdobj
p3279
tp3280
a(Vwe
p3281
Vnsubj
p3282
tp3283
a(Vobserve
p3284
g24
tp3285
aa(lp3286
(Vlisten
p3287
Vconj_and
p3288
tp3289
a(Vobserve
p3290
g24
tp3291
aa(lp3292
(Vuseful
p3293
Vdep
p3294
tp3295
a(Vreflect
p3296
Vconj_and
p3297
tp3298
a(Vobserve
p3299
g24
tp3300
aa(lp3301
(Vit
p3302
Vxsubj
p3303
tp3304
a(Vinteresting
p3305
Vxcomp
p3306
tp3307
a(Vto
p3308
Vaux
p3309
tp3310
a(Vobserve
p3311
g24
tp3312
a(Vto
p3313
g3309
tp3314
aa(lp3315
(Vthey
p3316
Vxsubj
p3317
tp3318
a(Vable
p3319
Vxcomp
p3320
tp3321
a(Vto
p3322
Vaux
p3323
tp3324
a(Vobserve
p3325
g24
tp3326
a(Vhand
p3327
Vprep_at
p3328
tp3329
a(Vadaption
p3330
Vdobj
p3331
tp3332
aa(lp3333
(Vcould
p3334
Vaux
p3335
tp3336
a(Vnot
p3337
Vneg
p3338
tp3339
a(Vobserve
p3340
g24
tp3341
aa(lp3342
(Vcan
p3343
Vaux
p3344
tp3345
a(Vagain
p3346
Vadvmod
p3347
tp3348
a(Vobserve
p3349
g24
tp3350
a(Vinitially
p3351
Vadvmod
p3352
tp3353
a(Vsensitive
p3354
Vparataxis
p3355
tp3356
aa(lp3357
(Vwe
p3358
Vnsubj
p3359
tp3360
a(Vobserve
p3361
g24
tp3362
aa(lp3363
(Vcan
p3364
Vaux
p3365
tp3366
a(Vobserve
p3367
g24
tp3368
a(Vmarket
p3369
Vdobj
p3370
tp3371
a(Vrate
p3372
Vdobj
p3373
tp3374
a(Vmarket
p3375
g3370
tp3376
a(Vrate
p3377
g3373
tp3378
aa(lp3379
(Vimportant
p3380
Vccomp
p3381
tp3382
a(Vthat
p3383
Vmark
p3384
tp3385
a(Vassistance
p3386
Vprep_with
p3387
tp3388
a(Vthey
p3389
Vnsubj
p3390
tp3391
a(Vcan
p3392
Vaux
p3393
tp3394
a(Vobserve
p3395
g24
tp3396
a(Vresponse
p3397
Vdobj
p3398
tp3399
a(Vthey
p3400
g3390
tp3401
a(Vsee
p3402
Vconj_and
p3403
tp3404
a(Vthat
p3405
g3384
tp3406
a(Vthey
p3407
g3390
tp3408
aa(lp3409
(Vto
p3410
Vaux
p3411
tp3412
a(Vto
p3413
g3411
tp3414
a(Vwe
p3415
Vxsubj
p3416
tp3417
a(Vwe
p3418
g3416
tp3419
a(Vwe
p3420
g3416
tp3421
a(Vwe
p3422
g3416
tp3423
a(Vgo
p3424
Vxcomp
p3425
tp3426
a(Vto
p3427
g3411
tp3428
a(Vobserve
p3429
g24
tp3430
a(Vmeeting
p3431
Vdobj
p3432
tp3433
aa(lp3434
(Vit
p3435
Vxsubj
p3436
tp3437
a(Vinteresting
p3438
Vxcomp
p3439
tp3440
a(Vto
p3441
Vaux
p3442
tp3443
a(Vobserve
p3444
g24
tp3445
aa(lp3446
(Vto
p3447
Vaux
p3448
tp3449
a(Vobserve
p3450
g24
tp3451
a(Vrecord
p3452
Vconj_and
p3453
tp3454
a(Vto
p3455
g3448
tp3456
a(Vexperience
p3457
Vxsubj
p3458
tp3459
aa(lp3460
(Vto
p3461
Vaux
p3462
tp3463
a(Vparent
p3464
Vinfmod
p3465
tp3466
a(Vto
p3467
g3462
tp3468
a(Vobserve
p3469
g24
tp3470
a(Vextinguish
p3471
Vconj_and
p3472
tp3473
a(Vto
p3474
g3462
tp3475
a(Vcomfort
p3476
Vprep_to
p3477
tp3478
aa(lp3479
(Vthey
p3480
Vxsubj
p3481
tp3482
a(Vthey
p3483
g3481
tp3484
a(Vthey
p3485
g3481
tp3486
a(Vto
p3487
Vaux
p3488
tp3489
a(Vobserve
p3490
g24
tp3491
a(Vthey
p3492
g3481
tp3493
aa(lp3494
(Vto
p3495
Vaux
p3496
tp3497
a(Vobserve
p3498
g24
tp3499
a(Vperformance
p3500
Vprep_in
p3501
tp3502
aa(lp3503
(Vto
p3504
Vaux
p3505
tp3506
a(Vto
p3507
g3505
tp3508
a(Vwedding
p3509
Vxsubj
p3510
tp3511
a(Vwedding
p3512
g3510
tp3513
a(Vfuneral
p3514
Vxsubj
p3515
tp3516
a(Vto
p3517
g3505
tp3518
a(Vobserve
p3519
g24
tp3520
a(Vbetter
p3521
Vdobj
p3522
tp3523
aa(lp3524
(Vhave
p3525
Vxcomp
p3526
tp3527
a(Vto
p3528
Vaux
p3529
tp3530
a(Vobserve
p3531
g24
tp3532
a(Vcase
p3533
Vccomp
p3534
tp3535
aa(lp3536
(Vit
p3537
Vxsubj
p3538
tp3539
a(Vdifficult
p3540
Vxcomp
p3541
tp3542
a(Vto
p3543
Vaux
p3544
tp3545
a(Vobserve
p3546
g24
tp3547
a(Vdecay
p3548
Vdobj
p3549
tp3550
a(Vit
p3551
g3538
tp3552
a(Vto
p3553
g3544
tp3554
aa(lp3555
(Vto
p3556
Vaux
p3557
tp3558
a(VI
p3559
Vxsubj
p3560
tp3561
a(Vwant
p3562
Vxcomp
p3563
tp3564
a(Vto
p3565
g3557
tp3566
a(Vobserve
p3567
g24
tp3568
a(Vsocially
p3569
Vdep
p3570
tp3571
aa(lp3572
(Vstill
p3573
Vadvmod
p3574
tp3575
a(Vobserve
p3576
g24
tp3577
a(Vtradition
p3578
Vdobj
p3579
tp3580
aa(lp3581
(Vtheme
p3582
Vxsubj
p3583
tp3584
a(Vthis
p3585
Vxsubj
p3586
tp3587
a(Vto
p3588
Vaux
p3589
tp3590
a(Vobserve
p3591
g24
tp3592
a(Vbehavior
p3593
Vdobj
p3594
tp3595
aa(lp3596
(Vraven
p3597
Vdobj
p3598
tp3599
a(VI
p3600
Vnsubj
p3601
tp3602
a(Vobserve
p3603
g24
tp3604
aa(lp3605
(Vto
p3606
Vaux
p3607
tp3608
a(Vobserve
p3609
g24
tp3610
a(Vto
p3611
g3607
tp3612
a(Vto
p3613
g3607
tp3614
aa(lp3615
(VHannah
p3616
Vnsubj
p3617
tp3618
a(VKay
p3619
Vnsubj
p3620
tp3621
a(Vobserve
p3622
g24
tp3623
aa(lp3624
(Vunion
p3625
Vdobj
p3626
tp3627
a(Vshould
p3628
Vaux
p3629
tp3630
a(Vobserve
p3631
g24
tp3632
a(Vunion
p3633
g3626
tp3634
aa(lp3635
(Vthey
p3636
Vnsubj
p3637
tp3638
a(Vobserve
p3639
g24
tp3640
a(Vsequence
p3641
Vdobj
p3642
tp3643
aa(lp3644
(Vobserve
p3645
g24
tp3646
a(Vset
p3647
Vdobj
p3648
tp3649
a(Vdecide
p3650
Vconj_and
p3651
tp3652
a(Vcome
p3653
Vconj_and
p3654
tp3655
a(Vuse
p3656
Vconj_and
p3657
tp3658
aa(lp3659
(VChiplin
p3660
Vnsubj
p3661
tp3662
a(VWright
p3663
Vnsubj
p3664
tp3665
a(Vobserve
p3666
g24
tp3667
a(Vprofound
p3668
Vccomp
p3669
tp3670
aa(lp3671
(Vwish
p3672
Vconj_and
p3673
tp3674
a(Vobserve
p3675
g24
tp3676
a(Vgain
p3677
Vdep
p3678
tp3679
aa(lp3680
(Vinteresting
p3681
Vxcomp
p3682
tp3683
a(Vto
p3684
Vaux
p3685
tp3686
a(Vobserve
p3687
g24
tp3688
aa(lp3689
(Vto
p3690
Vaux
p3691
tp3692
a(Vplace
p3693
Vxcomp
p3694
tp3695
a(Vto
p3696
g3691
tp3697
a(Vobserve
p3698
g24
tp3699
aa(lp3700
(Vwish
p3701
Vxcomp
p3702
tp3703
a(Vto
p3704
Vaux
p3705
tp3706
a(Vobserve
p3707
g24
tp3708
aa(lp3709
(Videa
p3710
Vxsubj
p3711
tp3712
a(Vto
p3713
Vaux
p3714
tp3715
a(Vobserve
p3716
g24
tp3717
a(Vother
p3718
Vdobj
p3719
tp3720
aa(lp3721
(Vpublic
p3722
Vnsubj
p3723
tp3724
a(Vcan
p3725
Vaux
p3726
tp3727
a(Vobserve
p3728
g24
tp3729
a(Vposition
p3730
Vprep_in
p3731
tp3732
aa(lp3733
(Vdesire
p3734
Vdep
p3735
tp3736
a(Vto
p3737
Vaux
p3738
tp3739
a(Vsurrender
p3740
Vconj_negcc
p3741
tp3742
a(Vto
p3743
g3738
tp3744
a(Vto
p3745
g3738
tp3746
a(Vobserve
p3747
g24
tp3748
a(Vobjectively
p3749
Vadvmod
p3750
tp3751
aa(lp3752
(Vgrass
p3753
Vdep
p3754
tp3755
a(Vone
p3756
Vnsubj
p3757
tp3758
a(Vmust
p3759
Vaux
p3760
tp3761
a(Vobserve
p3762
g24
tp3763
a(Vetiquette
p3764
Vdobj
p3765
tp3766
aa(lp3767
(Vbusy
p3768
Vccomp
p3769
tp3770
a(Vhe
p3771
Vnsubj
p3772
tp3773
a(Vthat
p3774
Vmark
p3775
tp3776
a(Vhe
p3777
g3772
tp3778
a(Vnot
p3779
Vneg
p3780
tp3781
a(Vobserve
p3782
g24
tp3783
aa(lp3784
(Vopportunity
p3785
Vinfmod
p3786
tp3787
a(Vto
p3788
Vaux
p3789
tp3790
a(Vobserve
p3791
g24
tp3792
a(Vask
p3793
Vconj_and
p3794
tp3795
a(Vattempt
p3796
Vconj_but
p3797
tp3798
a(Vto
p3799
g3789
tp3800
aa(lp3801
(Vwe
p3802
Vxsubj
p3803
tp3804
a(Vhave
p3805
Vxcomp
p3806
tp3807
a(Vto
p3808
Vaux
p3809
tp3810
a(Vobserve
p3811
g24
tp3812
a(Vthat
p3813
Vdobj
p3814
tp3815
aa(lp3816
(Vobserve
p3817
g24
tp3818
a(Vcontents
p3819
Vdobj
p3820
tp3821
a(Vblood
p3822
Vprep_such_as
p3823
tp3824
a(Vchange
p3825
Vprep_such_as
p3826
tp3827
aa(lp3828
(Vobserve
p3829
g24
tp3830
a(Vcome
p3831
Vxcomp
p3832
tp3833
a(Vmonster
p3834
Vxsubj
p3835
tp3836
aa(lp3837
(Vto
p3838
Vaux
p3839
tp3840
a(Vexamine
p3841
Vconj_and
p3842
tp3843
a(Vto
p3844
g3839
tp3845
a(Vobserve
p3846
g24
tp3847
a(Vcondition
p3848
Vdobj
p3849
tp3850
a(Vcountry
p3851
Vprep_in
p3852
tp3853
aa(lp3854
(Voften
p3855
Vadvmod
p3856
tp3857
a(Vobserve
p3858
g24
tp3859
a(Vhave
p3860
Vccomp
p3861
tp3862
a(Videntification
p3863
Vnsubj
p3864
tp3865
aa(lp3866
(Vinstructive
p3867
Vxcomp
p3868
tp3869
a(Vto
p3870
Vaux
p3871
tp3872
a(Vobserve
p3873
g24
tp3874
a(Vparent
p3875
Vdobj
p3876
tp3877
a(Vto
p3878
g3871
tp3879
aa(lp3880
(Vfact
p3881
Vdobj
p3882
tp3883
a(Vfact
p3884
g3882
tp3885
a(Vwe
p3886
Vnsubj
p3887
tp3888
a(Vcan
p3889
Vaux
p3890
tp3891
a(Vtherefore
p3892
Vadvmod
p3893
tp3894
a(Vall
p3895
Vadvmod
p3896
tp3897
a(Vobserve
p3898
g24
tp3899
a(Vdirectly
p3900
Vadvmod
p3901
tp3902
a(Vourselves
p3903
Vprep_for
p3904
tp3905
aa(lp3906
(Vtechnique
p3907
Vnsubj
p3908
tp3909
a(Vobserve
p3910
g24
tp3911
a(Vcreep
p3912
Vdobj
p3913
tp3914
aa(lp3915
(Vyou
p3916
Vnsubj
p3917
tp3918
a(Vmust
p3919
Vaux
p3920
tp3921
a(Vobserve
p3922
g24
tp3923
aa(lp3924
(Vcentury
p3925
Vprep_in
p3926
tp3927
a(Vwe
p3928
Vnsubj
p3929
tp3930
a(Vcan
p3931
Vaux
p3932
tp3933
a(Vobserve
p3934
g24
tp3935
a(Vrise
p3936
Vdobj
p3937
tp3938
aa(lp3939
(Vto
p3940
Vaux
p3941
tp3942
a(Vobserve
p3943
g24
tp3944
a(Vunusual
p3945
Vdobj
p3946
tp3947
aa(lp3948
(Vfailure
p3949
Vinfmod
p3950
tp3951
a(Vpay
p3952
Vconj_or
p3953
tp3954
a(Vobserve
p3955
g24
tp3956
aa(lp3957
(Vmust
p3958
Vaux
p3959
tp3960
a(Vobserve
p3961
g24
tp3962
a(Vcaveat
p3963
Vdobj
p3964
tp3965
aa(lp3966
(Vwe
p3967
Vnsubj
p3968
tp3969
a(Vobserve
p3970
g24
tp3971
a(Vpattern
p3972
Vdobj
p3973
tp3974
aa(lp3975
(V7
p3976
Vdep
p3977
tp3978
a(Vlump
p3979
Vdobj
p3980
tp3981
a(Vobserve
p3982
g24
tp3983
a(Vchange
p3984
Vdobj
p3985
tp3986
a(Vlump
p3987
g3980
tp3988
a(Vchange
p3989
g3985
tp3990
aa(lp3991
(Vtribunal
p3992
Vnsubj
p3993
tp3994
a(Vneed
p3995
Vaux
p3996
tp3997
a(Vnot
p3998
Vneg
p3999
tp4000
a(Valways
p4001
Vadvmod
p4002
tp4003
a(Vobserve
p4004
g24
tp4005
aa(lp4006
(Vability
p4007
Vinfmod
p4008
tp4009
a(Vto
p4010
Vaux
p4011
tp4012
a(Vobserve
p4013
g24
tp4014
aa(lp4015
(Vobserve
p4016
g24
tp4017
a(Vbelongedglib
p4018
Vadvcl
p4019
tp4020
aa(lp4021
a(lp4022
(Vwar
p4023
Vprep_after
p4024
tp4025
a(Vone
p4026
Vnsubj
p4027
tp4028
a(Vcould
p4029
Vaux
p4030
tp4031
a(Vobserve
p4032
g24
tp4033
aa(lp4034
(Vsit
p4035
Vconj_and
p4036
tp4037
a(Vlisten
p4038
Vconj_and
p4039
tp4040
a(Vobserve
p4041
g24
tp4042
aa(lp4043
(Vto
p4044
Vaux
p4045
tp4046
a(Vobserve
p4047
g24
tp4048
a(Vit
p4049
Vdobj
p4050
tp4051
a(Vexample
p4052
Vprep_for
p4053
tp4054
a(Vto
p4055
g4045
tp4056
aa(lp4057
(Vto
p4058
Vaux
p4059
tp4060
a(Vto
p4061
g4059
tp4062
a(Vobserve
p4063
g24
tp4064
aa(lp4065
(Vyou
p4066
Vnsubj
p4067
tp4068
a(Vobserve
p4069
g24
tp4070
a(Vsave
p4071
Vxcomp
p4072
tp4073
a(Vyou
p4074
g4067
tp4075
aa(lp4076
(Vit
p4077
Vnsubj
p4078
tp4079
a(Vto
p4080
Vaux
p4081
tp4082
a(Vobserve
p4083
g24
tp4084
a(Vmeanwhile
p4085
Vadvmod
p4086
tp4087
a(Vto
p4088
g4081
tp4089
a(Vto
p4090
g4081
tp4091
aa(lp4092
(Vday
p4093
Vinfmod
p4094
tp4095
a(Vto
p4096
Vaux
p4097
tp4098
a(Vobserve
p4099
g24
tp4100
a(Vdeer
p4101
Vdobj
p4102
tp4103
aa(lp4104
(Vto
p4105
Vaux
p4106
tp4107
a(Vobserve
p4108
g24
tp4109
a(Vclosely
p4110
Vadvmod
p4111
tp4112
a(Valso
p4113
Vdobj
p4114
tp4115
a(Vestablishment
p4116
Vdobj
p4117
tp4118
aa(lp4119
(Vyou
p4120
Vnsubj
p4121
tp4122
a(Vobserve
p4123
g24
tp4124
a(Vleaf-roll
p4125
Vdobj
p4126
tp4127
a(Vtake
p4128
Vadvcl
p4129
tp4130
aa(lp4131
(Vfeel
p4132
Vconj_and
p4133
tp4134
a(Vobserve
p4135
g24
tp4136
aa(lp4137
(Vto
p4138
Vaux
p4139
tp4140
a(Vto
p4141
g4139
tp4142
a(Vto
p4143
g4139
tp4144
a(Vobserve
p4145
g24
tp4146
aa(lp4147
(Vto
p4148
Vaux
p4149
tp4150
a(Vobserve
p4151
g24
tp4152
a(Vrequire
p4153
Vccomp
p4154
tp4155
aa(lp4156
(Vobserve
p4157
g24
tp4158
a(Vdrainage
p4159
Vdobj
p4160
tp4161
aa(lp4162
(Vimpossible
p4163
Vdep
p4164
tp4165
a(Vto
p4166
Vaux
p4167
tp4168
a(Vobserve
p4169
g24
tp4170
a(Vletter
p4171
Vdobj
p4172
tp4173
a(Vto
p4174
g4167
tp4175
a(Vsuppress
p4176
Vconj_or
p4177
tp4178
aa(lp4179
(Vwork
p4180
Vxsubj
p4181
tp4182
a(Vto
p4183
Vaux
p4184
tp4185
a(Vobserve
p4186
g24
tp4187
a(Vuser
p4188
Vdobj
p4189
tp4190
a(Vactivity
p4191
Vprep_during
p4192
tp4193
a(Vto
p4194
g4184
tp4195
a(Vmake
p4196
Vadvcl
p4197
tp4198
aa(lp4199
(VI
p4200
Vxsubj
p4201
tp4202
a(Vwish
p4203
Vxcomp
p4204
tp4205
a(Vto
p4206
Vaux
p4207
tp4208
a(Vobserve
p4209
g24
tp4210
a(VI
p4211
g4201
tp4212
aa(lp4213
(VI
p4214
Vxsubj
p4215
tp4216
a(VI
p4217
g4215
tp4218
a(Vable
p4219
Vxcomp
p4220
tp4221
a(Vto
p4222
Vaux
p4223
tp4224
a(VI
p4225
g4215
tp4226
a(VI
p4227
g4215
tp4228
a(Vable
p4229
g4220
tp4230
a(Vto
p4231
g4223
tp4232
a(Vobserve
p4233
g24
tp4234
a(VI
p4235
g4215
tp4236
aa(lp4237
(VHortensia
p4238
Vxsubj
p4239
tp4240
a(Vto
p4241
Vaux
p4242
tp4243
a(Vobserve
p4244
g24
tp4245
a(Veffect
p4246
Vdobj
p4247
tp4248
aa(lp4249
(VI
p4250
Vxsubj
p4251
tp4252
a(Vhave
p4253
Vxcomp
p4254
tp4255
a(Vto
p4256
Vaux
p4257
tp4258
a(Vobserve
p4259
g24
tp4260
a(Vdraw
p4261
Vconj_and
p4262
tp4263
a(Veverything
p4264
Vdobj
p4265
tp4266
a(Vto
p4267
g4257
tp4268
aa(lp4269
(VAusten
p4270
Vxsubj
p4271
tp4272
a(Vto
p4273
Vaux
p4274
tp4275
a(Vobserve
p4276
g24
tp4277
a(Vmore
p4278
Vadvmod
p4279
tp4280
a(Vwretchedness
p4281
Vprep_than
p4282
tp4283
aa(lp4284
(Vone
p4285
Vxsubj
p4286
tp4287
a(Vobserve
p4288
g24
tp4289
a(Vto
p4290
Vaux
p4291
tp4292
a(Vone
p4293
g4286
tp4294
a(Vone
p4295
g4286
tp4296
a(Vexpect
p4297
Vxcomp
p4298
tp4299
a(Vto
p4300
g4291
tp4301
a(Vto
p4302
g4291
tp4303
a(Vobserve
p4304
g24
tp4305
a(Vone
p4306
g4286
tp4307
a(Vdecay
p4308
Vdobj
p4309
tp4310
aa(lp4311
(VI
p4312
Vxsubj
p4313
tp4314
a(Vto
p4315
Vaux
p4316
tp4317
a(Vobserve
p4318
g24
tp4319
a(Vbefore
p4320
Vadvmod
p4321
tp4322
aa(lp4323
(Vto
p4324
Vaux
p4325
tp4326
a(Vto
p4327
g4325
tp4328
a(Vrespect
p4329
Vconj_and
p4330
tp4331
a(Vto
p4332
g4325
tp4333
a(Vobserve
p4334
g24
tp4335
aa(lp4336
(Vtime
p4337
Vinfmod
p4338
tp4339
a(Vfeed
p4340
Vconj_and
p4341
tp4342
a(Vobserve
p4343
g24
tp4344
a(Vit
p4345
Vdobj
p4346
tp4347
aa(lp4348
(Veasiest
p4349
Vdep
p4350
tp4351
a(Vto
p4352
Vaux
p4353
tp4354
a(Vobserve
p4355
g24
tp4356
a(Vrecord
p4357
Vprep_in
p4358
tp4359
a(Vbelieve
p4360
Vadvcl
p4361
tp4362
aa(lp4363
(Vwe
p4364
Vnsubj
p4365
tp4366
a(Vexamine
p4367
Vadvcl
p4368
tp4369
a(Vwe
p4370
g4365
tp4371
a(Vobserve
p4372
g24
tp4373
aa(lp4374
(Vopportunity
p4375
Vinfmod
p4376
tp4377
a(Vto
p4378
Vaux
p4379
tp4380
a(Vobserve
p4381
g24
tp4382
a(Vask
p4383
Vconj_and
p4384
tp4385
aa(lp4386
(Vcourt
p4387
Vxsubj
p4388
tp4389
a(Vto
p4390
Vaux
p4391
tp4392
a(Vobserve
p4393
g24
tp4394
a(Vitself
p4395
Vprep_for
p4396
tp4397
aa(lp4398
(Vpurpose
p4399
Vxsubj
p4400
tp4401
a(Vto
p4402
Vaux
p4403
tp4404
a(Vobserve
p4405
g24
tp4406
a(Vactivity
p4407
Vprep_on
p4408
tp4409
aa(lp4410
(VI
p4411
Vxsubj
p4412
tp4413
a(VI
p4414
g4412
tp4415
a(Vable
p4416
Vxcomp
p4417
tp4418
a(Vto
p4419
Vaux
p4420
tp4421
a(VI
p4422
g4412
tp4423
a(VI
p4424
g4412
tp4425
a(Vable
p4426
g4417
tp4427
a(Vto
p4428
g4420
tp4429
a(Vobserve
p4430
g24
tp4431
a(VI
p4432
g4412
tp4433
aa(lp4434
(Vneed
p4435
Vinfmod
p4436
tp4437
a(Vto
p4438
Vaux
p4439
tp4440
a(Vobserve
p4441
g24
tp4442
a(Vpassage
p4443
Vdobj
p4444
tp4445
a(Vneed
p4446
g4436
tp4447
aa(lp4448
(Voperate
p4449
Vparataxis
p4450
tp4451
a(Vthey
p4452
Vnsubj
p4453
tp4454
a(Vmust
p4455
Vaux
p4456
tp4457
a(Vobserve
p4458
g24
tp4459
a(Vcomply
p4460
Vconj_and
p4461
tp4462
aa(lp4463
(Vdifficult
p4464
Vxcomp
p4465
tp4466
a(Vto
p4467
Vaux
p4468
tp4469
a(Vobserve
p4470
g24
tp4471
aa(lp4472
(Vhe
p4473
Vxcomp
p4474
tp4475
a(VWaugh
p4476
Vxsubj
p4477
tp4478
a(Vto
p4479
Vaux
p4480
tp4481
a(Vobserve
p4482
g24
tp4483
a(Vhe
p4484
g4474
tp4485
a(Vhe
p4486
g4474
tp4487
a(Vto
p4488
g4480
tp4489
a(Vhe
p4490
g4474
tp4491
aa(lp4492
(VI
p4493
Vxsubj
p4494
tp4495
a(Vinterested
p4496
Vxcomp
p4497
tp4498
a(Vto
p4499
Vaux
p4500
tp4501
a(Vobserve
p4502
g24
tp4503
a(VI
p4504
g4494
tp4505
a(VI
p4506
g4494
tp4507
aa(lp4508
(VI
p4509
Vnsubj
p4510
tp4511
a(Vown
p4512
Vparataxis
p4513
tp4514
a(VI
p4515
g4510
tp4516
a(Vcould
p4517
Vaux
p4518
tp4519
a(Vobserve
p4520
g24
tp4521
a(VI
p4522
g4510
tp4523
a(VI
p4524
g4510
tp4525
aa(lp4526
(Vrequirement
p4527
Vdep
p4528
tp4529
a(Vthat
p4530
Vmark
p4531
tp4532
a(Vexpert
p4533
Vnsubj
p4534
tp4535
a(Vobserve
p4536
g24
tp4537
aa(lp4538
(Vto
p4539
Vaux
p4540
tp4541
a(Vobserve
p4542
g24
tp4543
a(Vceasefire
p4544
Vdobj
p4545
tp4546
a(Vto
p4547
g4540
tp4548
a(Vallow
p4549
Vxcomp
p4550
tp4551
a(Vto
p4552
g4540
tp4553
aa(lp4554
(V2b
p4555
Vdobj
p4556
tp4557
a(Vwe
p4558
Vnsubj
p4559
tp4560
a(Vcan
p4561
Vaux
p4562
tp4563
a(Vobserve
p4564
g24
tp4565
a(Vdue
p4566
Vxcomp
p4567
tp4568
aa(lp4569
(Vto
p4570
Vaux
p4571
tp4572
a(Vobserve
p4573
g24
tp4574
aa(lp4575
(Vright
p4576
Vxcomp
p4577
tp4578
a(Vto
p4579
Vaux
p4580
tp4581
a(Vobserve
p4582
g24
tp4583
a(Vthat
p4584
Vadvmod
p4585
tp4586
a(Vdecision
p4587
Vprep_until
p4588
tp4589
aa(lp4590
(Vthat
p4591
Vmark
p4592
tp4593
a(Vthat
p4594
g4592
tp4595
a(Vfirm
p4596
Vnsubj
p4597
tp4598
a(Vshould
p4599
Vaux
p4600
tp4601
a(Vobserve
p4602
g24
tp4603
aa(lp4604
(Vto
p4605
Vaux
p4606
tp4607
a(Vto
p4608
g4606
tp4609
a(Vburden
p4610
Vxcomp
p4611
tp4612
a(Vto
p4613
g4606
tp4614
a(Vobserve
p4615
g24
tp4616
a(Vto
p4617
g4606
tp4618
aa(lp4619
(Vto
p4620
Vaux
p4621
tp4622
a(Vsend
p4623
Vxcomp
p4624
tp4625
a(Vto
p4626
g4621
tp4627
a(Vobserve
p4628
g24
tp4629
a(Vprocess
p4630
Vdobj
p4631
tp4632
aa(lp4633
(Vobserve
p4634
g24
tp4635
aa(lp4636
(Vuse
p4637
Vccomp
p4638
tp4639
a(Vwhich
p4640
Vnsubj
p4641
tp4642
a(Vobserve
p4643
g24
tp4644
aa(lp4645
(Vpossible
p4646
Vxcomp
p4647
tp4648
a(Vto
p4649
Vaux
p4650
tp4651
a(Vobserve
p4652
g24
tp4653
a(Venjoy
p4654
Vconj_and
p4655
tp4656
a(Vto
p4657
g4650
tp4658
aa(lp4659
(Vperform
p4660
Vadvcl
p4661
tp4662
a(Vso
p4663
Vmark
p4664
tp4665
a(Vthat
p4666
Vmark
p4667
tp4668
a(Vcould
p4669
Vaux
p4670
tp4671
a(Vobserve
p4672
g24
tp4673
a(Vcapacity
p4674
Vdobj
p4675
tp4676
aa(lp4677
(Vable
p4678
Vadvcl
p4679
tp4680
a(Vobserve
p4681
g24
tp4682
a(Vlearn
p4683
Vccomp
p4684
tp4685
a(Volder
p4686
Vnsubj
p4687
tp4688
aa(lp4689
(Vother
p4690
Vxsubj
p4691
tp4692
a(Vto
p4693
Vaux
p4694
tp4695
a(Vobserve
p4696
g24
tp4697
a(Vworld
p4698
Vdobj
p4699
tp4700
a(Vattention
p4701
Vprep_with
p4702
tp4703
aa(lp4704
(Vto
p4705
Vaux
p4706
tp4707
a(Vobserve
p4708
g24
tp4709
a(Vto
p4710
g4706
tp4711
aa(lp4712
(VI
p4713
Vnsubj
p4714
tp4715
a(Vshould
p4716
Vaux
p4717
tp4718
a(Vobserve
p4719
g24
tp4720
aa(lp4721
(Vbegin
p4722
Vxcomp
p4723
tp4724
a(Vto
p4725
Vaux
p4726
tp4727
a(Vobserve
p4728
g24
tp4729
a(Vto
p4730
g4726
tp4731
a(Vadopt
p4732
Vxcomp
p4733
tp4734
a(Vto
p4735
g4726
tp4736
aa(lp4737
(Vif
p4738
Vmark
p4739
tp4740
a(Vwe
p4741
Vnsubj
p4742
tp4743
a(Vobserve
p4744
g24
tp4745
a(Vinjury
p4746
Vdobj
p4747
tp4748
a(Vdisease
p4749
Vdobj
p4750
tp4751
a(Vwe
p4752
g4742
tp4753
a(Vattempt
p4754
Vadvcl
p4755
tp4756
aa(lp4757
(Vas
p4758
Vmark
p4759
tp4760
a(Vmany
p4761
Vnsubj
p4762
tp4763
a(Vobserve
p4764
g24
tp4765
a(Vas
p4766
g4759
tp4767
a(Vcollapse
p4768
Vdobj
p4769
tp4770
a(Vcollapse
p4771
g4769
tp4772
aa(lp4773
(Vbecause
p4774
Vmark
p4775
tp4776
a(Vwe
p4777
Vnsubj
p4778
tp4779
a(Vcan
p4780
Vaux
p4781
tp4782
a(Vnot
p4783
Vneg
p4784
tp4785
a(Vobserve
p4786
g24
tp4787
a(Vexist
p4788
Vccomp
p4789
tp4790
a(Vwe
p4791
g4778
tp4792
aa(lp4793
(Vit
p4794
Vxsubj
p4795
tp4796
a(Vseemly
p4797
Vxcomp
p4798
tp4799
a(Vto
p4800
Vaux
p4801
tp4802
a(Vobserve
p4803
g24
tp4804
a(Vclosely
p4805
Vadvmod
p4806
tp4807
a(Vto
p4808
g4801
tp4809
aa(lp4810
(Vto
p4811
Vaux
p4812
tp4813
a(Vobserve
p4814
g24
tp4815
a(Vlaw
p4816
Vdobj
p4817
tp4818
a(Vto
p4819
g4812
tp4820
aa(lp4821
(VMarsden
p4822
Vxsubj
p4823
tp4824
a(Vone
p4825
Vxcomp
p4826
tp4827
a(Vto
p4828
Vaux
p4829
tp4830
a(Vobserve
p4831
g24
tp4832
a(Vbehavior
p4833
Vdobj
p4834
tp4835
aa(lp4836
(Vit
p4837
Vxsubj
p4838
tp4839
a(Vnecessary
p4840
Vxcomp
p4841
tp4842
a(Vto
p4843
Vaux
p4844
tp4845
a(Vobserve
p4846
g24
tp4847
a(Vconsequence
p4848
Vccomp
p4849
tp4850
a(Vto
p4851
g4844
tp4852
aa(lp4853
(Vthis
p4854
Vrcmod
p4855
tp4856
a(Vobserve
p4857
g24
tp4858
aa(lp4859
(Vobserve
p4860
g24
tp4861
a(Vevidence
p4862
Vdobj
p4863
tp4864
aa(lp4865
(Vpsychologist
p4866
Vxsubj
p4867
tp4868
a(Vto
p4869
Vaux
p4870
tp4871
a(Vobserve
p4872
g24
tp4873
a(Vit
p4874
Vxcomp
p4875
tp4876
aa(lp4877
(Vit
p4878
Vxsubj
p4879
tp4880
a(Vto
p4881
Vaux
p4882
tp4883
a(Vit
p4884
g4879
tp4885
a(Venough
p4886
Vxcomp
p4887
tp4888
a(Vto
p4889
g4882
tp4890
a(Vobserve
p4891
g24
tp4892
a(Vto
p4893
g4882
tp4894
aa(lp4895
(Vto
p4896
Vaux
p4897
tp4898
a(Vstart
p4899
Vxcomp
p4900
tp4901
a(Vto
p4902
g4897
tp4903
a(Vobserve
p4904
g24
tp4905
a(Vto
p4906
g4897
tp4907
aa(lp4908
(Vimportant
p4909
Vxcomp
p4910
tp4911
a(Vto
p4912
Vaux
p4913
tp4914
a(Vobserve
p4915
g24
tp4916
a(Vbehavior
p4917
Vdobj
p4918
tp4919
a(Vas
p4920
Vadvmod
p4921
tp4922
a(Vas
p4923
g4921
tp4924
a(Vto
p4925
g4913
tp4926
aa(lp4927
(Vsomething
p4928
Vdobj
p4929
tp4930
a(Vyou
p4931
Vnsubj
p4932
tp4933
a(Vcan
p4934
Vaux
p4935
tp4936
a(Vobserve
p4937
g24
tp4938
a(Vyourself
p4939
Vprep_for
p4940
tp4941
a(Vplace
p4942
Vprep_in
p4943
tp4944
aa(lp4945
(Vto
p4946
Vaux
p4947
tp4948
a(Vobserve
p4949
g24
tp4950
a(Vban
p4951
Vdobj
p4952
tp4953
a(Vto
p4954
g4947
tp4955
aa(lp4956
(Vin
p4957
Vmark
p4958
tp4959
a(Vthere
p4960
Vexpl
p4961
tp4962
a(Vto
p4963
Vaux
p4964
tp4965
a(Vobserve
p4966
g24
tp4967
a(Veffect
p4968
Vdobj
p4969
tp4970
aa(lp4971
(Vobserve
p4972
g24
tp4973
a(Vbehavior
p4974
Vdobj
p4975
tp4976
aa(lp4977
(Vto
p4978
Vaux
p4979
tp4980
a(Vit
p4981
Vxsubj
p4982
tp4983
a(Vnecessary
p4984
Vxcomp
p4985
tp4986
a(Vto
p4987
g4979
tp4988
a(Vobserve
p4989
g24
tp4990
aa(lp4991
(Vperform
p4992
Vconj_and
p4993
tp4994
a(Vobserve
p4995
g24
tp4996
aa(lp4997
(Vto
p4998
Vaux
p4999
tp5000
a(Vto
p5001
g4999
tp5002
a(Vobserve
p5003
g24
tp5004
aa(lp5005
(VI
p5006
Vxsubj
p5007
tp5008
a(Vto
p5009
Vaux
p5010
tp5011
a(Vobserve
p5012
g24
tp5013
a(Vit
p5014
Vdobj
p5015
tp5016
aa(lp5017
(Vcourt
p5018
Vxsubj
p5019
tp5020
a(Vto
p5021
Vaux
p5022
tp5023
a(Vobserve
p5024
g24
tp5025
a(Vsize
p5026
Vdobj
p5027
tp5028
a(Vbuild
p5029
Vconj_and
p5030
tp5031
a(Vto
p5032
g5022
tp5033
a(Vto
p5034
g5022
tp5035
aa(lp5036
(Vthey
p5037
Vnsubj
p5038
tp5039
a(Vobserve
p5040
g24
tp5041
a(Vwork
p5042
Vdobj
p5043
tp5044
aa(lp5045
(Vchoice
p5046
Vinfmod
p5047
tp5048
a(Vto
p5049
Vaux
p5050
tp5051
a(Vobserve
p5052
g24
tp5053
a(Vsilently
p5054
Vadvmod
p5055
tp5056
a(Vto
p5057
g5050
tp5058
a(Vobserve
p5059
g24
tp5060
aa(lp5061
(Vdo
p5062
Vaux
p5063
tp5064
a(Vobserve
p5065
g24
tp5066
a(Vbackground
p5067
Vdobj
p5068
tp5069
aa(lp5070
(Vsurprising
p5071
Vxcomp
p5072
tp5073
a(Vto
p5074
Vaux
p5075
tp5076
a(Vobserve
p5077
g24
tp5078
a(Vtendency
p5079
Vdobj
p5080
tp5081
a(Vto
p5082
g5075
tp5083
a(Vtreat
p5084
Vxcomp
p5085
tp5086
aa(lp5087
(Vdo
p5088
Vaux
p5089
tp5090
a(Vnot
p5091
Vneg
p5092
tp5093
a(Valways
p5094
Vadvmod
p5095
tp5096
a(Vobserve
p5097
g24
tp5098
a(Vprinciple
p5099
Vdobj
p5100
tp5101
a(Vsuspect
p5102
Vconj_but
p5103
tp5104
aa(lp5105
(Vscale
p5106
Vprep_on
p5107
tp5108
a(Vone
p5109
Vnsubj
p5110
tp5111
a(Vmight
p5112
Vaux
p5113
tp5114
a(Vobserve
p5115
g24
tp5116
a(Vone
p5117
g5110
tp5118
a(Vstrange
p5119
Vdep
p5120
tp5121
aa(lp5122
(Vflower
p5123
Vinfmod
p5124
tp5125
a(Vflower
p5126
g5124
tp5127
a(Vflower
p5128
g5124
tp5129
a(Vexamine
p5130
Vconj_and
p5131
tp5132
a(Vobserve
p5133
g24
tp5134
aa(lp5135
(Vthey
p5136
Vxsubj
p5137
tp5138
a(Vthey
p5139
g5137
tp5140
a(Vto
p5141
Vaux
p5142
tp5143
a(Vobserve
p5144
g24
tp5145
aa(lp5146
(Vreader
p5147
Vnsubj
p5148
tp5149
a(Vobserve
p5150
g24
tp5151
aa(lp5152
(VCorporation
p5153
Vxsubj
p5154
tp5155
a(Vto
p5156
Vaux
p5157
tp5158
a(Vobserve
p5159
g24
tp5160
a(Vadvice
p5161
Vdobj
p5162
tp5163
a(Vto
p5164
g5157
tp5165
aa(lp5166
(Vauditor
p5167
Vnsubj
p5168
tp5169
a(Vmust
p5170
Vaux
p5171
tp5172
a(Vobserve
p5173
g24
tp5174
aa(lp5175
(Vto
p5176
Vaux
p5177
tp5178
a(Vto
p5179
g5177
tp5180
a(Vcite
p5181
Vconj_and
p5182
tp5183
a(Vto
p5184
g5177
tp5185
a(Vobserve
p5186
g24
tp5187
a(Vthat
p5188
Vdobj
p5189
tp5190
a(Vto
p5191
g5177
tp5192
aa(lp5193
(Vshould
p5194
Vaux
p5195
tp5196
a(Vobserve
p5197
g24
tp5198
a(Vreact
p5199
Vconj_and
p5200
tp5201
aa(lp5202
(Vsong
p5203
Vnsubj
p5204
tp5205
a(Vnot
p5206
Vneg
p5207
tp5208
a(Vobserve
p5209
g24
tp5210
aa(lp5211
(Vto
p5212
Vaux
p5213
tp5214
a(Vobserve
p5215
g24
tp5216
a(Vpractice
p5217
Vdobj
p5218
tp5219
a(Vframework
p5220
Vprep_within
p5221
tp5222
a(Vto
p5223
g5213
tp5224
aa(lp5225
(Vto
p5226
Vaux
p5227
tp5228
a(Vto
p5229
g5227
tp5230
a(Vfolk
p5231
Vxsubj
p5232
tp5233
a(Vto
p5234
g5227
tp5235
a(Vobserve
p5236
g24
tp5237
aa(lp5238
(Vto
p5239
Vaux
p5240
tp5241
a(Vreclaim
p5242
Vxcomp
p5243
tp5244
a(Vto
p5245
g5240
tp5246
a(Vobserve
p5247
g24
tp5248
a(Vclause
p5249
Vdobj
p5250
tp5251
a(Vtreaty
p5252
Vprep_in
p5253
tp5254
aa(lp5255
(Vcentury
p5256
Vmark
p5257
tp5258
a(Vall
p5259
Vnsubj
p5260
tp5261
a(Vshould
p5262
Vaux
p5263
tp5264
a(Vobserve
p5265
g24
tp5266
a(Vtradition
p5267
Vdobj
p5268
tp5269
aa(lp5270
(Vblock
p5271
Vdobj
p5272
tp5273
a(Vwe
p5274
Vnsubj
p5275
tp5276
a(Vobserve
p5277
g24
tp5278
aa(lp5279
(Voriginator
p5280
Vnsubj
p5281
tp5282
a(Vsit
p5283
Vconj_and
p5284
tp5285
a(Vobserve
p5286
g24
tp5287
a(Vset
p5288
Vccomp
p5289
tp5290
aa(lp5291
(Vshe
p5292
Vxsubj
p5293
tp5294
a(Vto
p5295
Vaux
p5296
tp5297
a(Vobserve
p5298
g24
tp5299
a(Vmiracle
p5300
Vccomp
p5301
tp5302
a(Vmiracle
p5303
g5301
tp5304
aa(lp5305
(VColeman
p5306
Vxsubj
p5307
tp5308
a(Vto
p5309
Vaux
p5310
tp5311
a(Vobserve
p5312
g24
tp5313
aa(lp5314
(Vstaff
p5315
Vnsubj
p5316
tp5317
a(Vsettle
p5318
Vconj_and
p5319
tp5320
a(Vobserve
p5321
g24
tp5322
a(Vversion
p5323
Vdobj
p5324
tp5325
aa(lp5326
(Vwe
p5327
Vnsubj
p5328
tp5329
a(Vnow
p5330
Vadvmod
p5331
tp5332
a(Vobserve
p5333
g24
tp5334
a(Vphase
p5335
Vprep_in
p5336
tp5337
a(Vphase
p5338
g5336
tp5339
aa(lp5340
(Vwill
p5341
Vaux
p5342
tp5343
a(Vobserve
p5344
g24
tp5345
a(Vprocess
p5346
Vdobj
p5347
tp5348
a(Vprocess
p5349
g5347
tp5350
aa(lp5351
(Vto
p5352
Vaux
p5353
tp5354
a(Vto
p5355
g5353
tp5356
a(Vpermit
p5357
Vxcomp
p5358
tp5359
a(Vto
p5360
g5353
tp5361
a(Vobserve
p5362
g24
tp5363
a(Vquality
p5364
Vdobj
p5365
tp5366
a(Vpart
p5367
Vprep_as
p5368
tp5369
aa(lp5370
(Vyou
p5371
Vnsubj
p5372
tp5373
a(Vchoose
p5374
Vadvcl
p5375
tp5376
a(Vwhere
p5377
Vadvmod
p5378
tp5379
a(Vyou
p5380
g5372
tp5381
a(V'll
p5382
Vaux
p5383
tp5384
a(Vobserve
p5385
g24
tp5386
a(Vlife
p5387
Vdobj
p5388
tp5389
aa(lp5390
(Vcan
p5391
Vaux
p5392
tp5393
a(Vobserve
p5394
g24
tp5395
a(Vtrend
p5396
Vdobj
p5397
tp5398
aa(lp5399
(Vto
p5400
Vaux
p5401
tp5402
a(Vright
p5403
Vinfmod
p5404
tp5405
a(Vright
p5406
g5404
tp5407
a(Vto
p5408
g5401
tp5409
a(Vobserve
p5410
g24
tp5411
a(Vobserve
p5412
g24
tp5413
a(Vto
p5414
g5401
tp5415
a(Vright
p5416
g5404
tp5417
a(Vto
p5418
g5401
tp5419
a(Vobserve
p5420
g24
tp5421
a(Vif
p5422
Vdep
p5423
tp5424
a(Vright
p5425
g5404
tp5426
aa(lp5427
(Vone
p5428
Vnsubj
p5429
tp5430
a(Vone
p5431
g5429
tp5432
a(Vmust
p5433
Vaux
p5434
tp5435
a(Vsimply
p5436
Vadvmod
p5437
tp5438
a(Vobserve
p5439
g24
tp5440
a(Vdo
p5441
Vccomp
p5442
tp5443
aa(lp5444
(Vable
p5445
Vxcomp
p5446
tp5447
a(Vto
p5448
Vaux
p5449
tp5450
a(Vobserve
p5451
g24
tp5452
a(Vworld
p5453
Vdobj
p5454
tp5455
a(Vto
p5456
g5449
tp5457
aa(lp5458
(Vopportunity
p5459
Vinfmod
p5460
tp5461
a(Vwork
p5462
Vconj_and
p5463
tp5464
a(Vso
p5465
Vadvmod
p5466
tp5467
a(Vobserve
p5468
g24
tp5469
aa(lp5470
(Vto
p5471
Vaux
p5472
tp5473
a(Vtravel
p5474
Vxcomp
p5475
tp5476
a(Vto
p5477
g5472
tp5478
a(Vobserve
p5479
g24
tp5480
a(Vto
p5481
g5472
tp5482
aa(lp5483
(Vpattern
p5484
Vdobj
p5485
tp5486
a(Vwe
p5487
Vnsubj
p5488
tp5489
a(Vobserve
p5490
g24
tp5491
a(Vpattern
p5492
g5485
tp5493
a(Vrelation
p5494
Vdobj
p5495
tp5496
a(Vpattern
p5497
g5485
tp5498
a(Vprocess
p5499
Vprep_to
p5500
tp5501
aa(lp5502
(Vobserve
p5503
g24
tp5504
a(Vtrifling
p5505
Vccomp
p5506
tp5507
aa(lp5508
(Vwe
p5509
Vnsubj
p5510
tp5511
a(Vcan
p5512
Vaux
p5513
tp5514
a(Vobserve
p5515
g24
tp5516
aa(lp5517
(Vto
p5518
Vaux
p5519
tp5520
a(Vobserve
p5521
g24
tp5522
a(Vtriad
p5523
Vdobj
p5524
tp5525
aa(lp5526
(Venough
p5527
Vxcomp
p5528
tp5529
a(Vto
p5530
Vaux
p5531
tp5532
a(Vobserve
p5533
g24
tp5534
a(Vsource
p5535
Vprep_as
p5536
tp5537
aa(lp5538
a(lp5539
(Vto
p5540
Vaux
p5541
tp5542
a(Vto
p5543
g5541
tp5544
a(Vobserve
p5545
g24
tp5546
a(Vaircraft
p5547
Vdobj
p5548
tp5549
a(Vto
p5550
g5541
tp5551
a(Vwarn
p5552
Vconj_and
p5553
tp5554
aa(lp5555
(Vtherefore
p5556
Vadvmod
p5557
tp5558
a(Vwe
p5559
Vnsubj
p5560
tp5561
a(Vobserve
p5562
g24
tp5563
aa(lp5564
(Vleave
p5565
Vconj_but
p5566
tp5567
a(Vobserve
p5568
g24
tp5569
a(Vthat
p5570
Vadvmod
p5571
tp5572
aa(lp5573
(Vto
p5574
Vaux
p5575
tp5576
a(Vable
p5577
Vxcomp
p5578
tp5579
a(Vto
p5580
g5575
tp5581
a(Vobserve
p5582
g24
tp5583
a(Vspecies
p5584
Vdobj
p5585
tp5586
a(Vsituation
p5587
Vprep_in
p5588
tp5589
aa(lp5590
(Vtend
p5591
Vxcomp
p5592
tp5593
a(Vto
p5594
Vaux
p5595
tp5596
a(Vobserve
p5597
g24
tp5598
aa(lp5599
(Vthey
p5600
Vnsubj
p5601
tp5602
a(Vobserve
p5603
g24
tp5604
a(Vthey
p5605
g5601
tp5606
a(Vhave
p5607
Vconj_and
p5608
tp5609
a(Vthey
p5610
g5601
tp5611
aa(lp5612
(Vdegree
p5613
Vprep_to
p5614
tp5615
a(Vdegree
p5616
g5614
tp5617
a(Vobserve
p5618
g24
tp5619
aa(lp5620
(Vlow
p5621
Vadvcl
p5622
tp5623
a(Vfor
p5624
Vmark
p5625
tp5626
a(Vto
p5627
Vaux
p5628
tp5629
a(Vobserve
p5630
g24
tp5631
a(Vdirectly
p5632
Vadvmod
p5633
tp5634
aa(lp5635
(Vhe
p5636
Vxsubj
p5637
tp5638
a(Vto
p5639
Vaux
p5640
tp5641
a(Vobserve
p5642
g24
tp5643
a(Vadage
p5644
Vdobj
p5645
tp5646
a(Vhe
p5647
g5637
tp5648
a(Vto
p5649
g5640
tp5650
aa(lp5651
(V12
p5652
Vdobj
p5653
tp5654
a(Vyou
p5655
Vnsubj
p5656
tp5657
a(Vwill
p5658
Vaux
p5659
tp5660
a(Vobserve
p5661
g24
tp5662
aa(lp5663
(Vjust
p5664
Vdep
p5665
tp5666
a(Vto
p5667
Vaux
p5668
tp5669
a(Vobserve
p5670
g24
tp5671
a(Vattentive
p5672
Vccomp
p5673
tp5674
a(Vto
p5675
g5668
tp5676
a(Vsupply
p5677
Vconj_and
p5678
tp5679
a(Vto
p5680
g5668
tp5681
a(Vto
p5682
g5668
tp5683
aa(lp5684
(Vyou
p5685
Vnsubj
p5686
tp5687
a(Vyou
p5688
g5686
tp5689
a(Vinterpretation
p5690
Vprepc_of
p5691
tp5692
a(Vwhat
p5693
Vdobj
p5694
tp5695
a(Vyou
p5696
g5686
tp5697
a(Vobserve
p5698
g24
tp5699
a(Vexperience
p5700
Vconj_and
p5701
tp5702
aa(lp5703
(Vwe
p5704
Vnsubj
p5705
tp5706
a(Vcould
p5707
Vaux
p5708
tp5709
a(Vobserve
p5710
g24
tp5711
a(Vvary
p5712
Vdep
p5713
tp5714
aa(lp5715
(Vthey
p5716
Vnsubj
p5717
tp5718
a(Vsort
p5719
Vconj_and
p5720
tp5721
a(Vobserve
p5722
g24
tp5723
a(Vcollect
p5724
Vconj_and
p5725
tp5726
a(Varrange
p5727
Vconj_and
p5728
tp5729
aa(lp5730
(Vopportunity
p5731
Vinfmod
p5732
tp5733
a(Vto
p5734
Vaux
p5735
tp5736
a(Vobserve
p5737
g24
tp5738
a(Vself-image
p5739
Vdobj
p5740
tp5741
aa(lp5742
(Vto
p5743
Vaux
p5744
tp5745
a(Vobserve
p5746
g24
tp5747
aa(lp5748
(Vdetector
p5749
Vnsubj
p5750
tp5751
a(Vwill
p5752
Vaux
p5753
tp5754
a(Vobserve
p5755
g24
tp5756
aa(lp5757
(Vobserve
p5758
g24
tp5759
a(Vprinciple
p5760
Vdobj
p5761
tp5762
aa(lp5763
(Vit
p5764
Vnsubj
p5765
tp5766
a(Vdisaggregate
p5767
Vconj_and
p5768
tp5769
a(Vobserve
p5770
g24
tp5771
a(Vinterval
p5772
Vprep_at
p5773
tp5774
aa(lp5775
(Vto
p5776
Vaux
p5777
tp5778
a(Vobserve
p5779
g24
tp5780
a(Vdecrease
p5781
Vccomp
p5782
tp5783
aa(lp5784
(VI
p5785
Vxsubj
p5786
tp5787
a(Vwish
p5788
Vxcomp
p5789
tp5790
a(Vto
p5791
Vaux
p5792
tp5793
a(Vobserve
p5794
g24
tp5795
a(VI
p5796
g5786
tp5797
a(Vsee
p5798
Vccomp
p5799
tp5800
aa(lp5801
(Vsomething
p5802
Vdobj
p5803
tp5804
a(Vyou
p5805
Vnsubj
p5806
tp5807
a(Vcan
p5808
Vaux
p5809
tp5810
a(Vobserve
p5811
g24
tp5812
a(Vyourself
p5813
Vprep_for
p5814
tp5815
a(Vrestaurant
p5816
Vprep_in
p5817
tp5818
aa(lp5819
(VServices
p5820
Vnsubj
p5821
tp5822
a(Vobserve
p5823
g24
tp5824
a(Vperform
p5825
Vconj_and
p5826
tp5827
aa(lp5828
(VOpportunity
p5829
Vnsubj
p5830
tp5831
a(Vto
p5832
Vaux
p5833
tp5834
a(Vobserve
p5835
g24
tp5836
a(Vcraftspeople
p5837
Vdobj
p5838
tp5839
a(Vwork
p5840
Vprep_at
p5841
tp5842
a(Vbeautifully
p5843
Vadvmod
p5844
tp5845
a(Vfarmhouse
p5846
Vprep_in
p5847
tp5848
aa(lp5849
(Vgalling
p5850
Vxcomp
p5851
tp5852
a(Vto
p5853
Vaux
p5854
tp5855
a(Vto
p5856
g5854
tp5857
a(Vobserve
p5858
g24
tp5859
a(Vchange
p5860
Vdobj
p5861
tp5862
a(Vdemeanor
p5863
Vprep_in
p5864
tp5865
aa(lp5866
(V1
p5867
Vdep
p5868
tp5869
a(Vand
p5870
Vadvmod
p5871
tp5872
a(Vwe
p5873
Vnsubj
p5874
tp5875
a(Voften
p5876
Vadvmod
p5877
tp5878
a(Vobserve
p5879
g24
tp5880
a(Veach
p5881
Vdobj
p5882
tp5883
aa(lp5884
(Vto
p5885
Vaux
p5886
tp5887
a(Vobserve
p5888
g24
tp5889
aa(lp5890
(Vto
p5891
Vaux
p5892
tp5893
a(Vobserve
p5894
g24
tp5895
a(Vbehavior
p5896
Vdobj
p5897
tp5898
aa(lp5899
(Vwe
p5900
Vnsubj
p5901
tp5902
a(Vrelate
p5903
Vccomp
p5904
tp5905
a(Vthat
p5906
Vmark
p5907
tp5908
a(Vwe
p5909
g5901
tp5910
a(Vobserve
p5911
g24
tp5912
aa(lp5913
(VKorea
p5914
Vprep_throughout
p5915
tp5916
a(Vto
p5917
Vaux
p5918
tp5919
a(Vobserve
p5920
g24
tp5921
a(Vholding
p5922
Vdobj
p5923
tp5924
a(Vconduct
p5925
Vdobj
p5926
tp5927
a(VKorea
p5928
g5915
tp5929
a(Vto
p5930
g5918
tp5931
a(Vadvise
p5932
Vconj_and
p5933
tp5934
a(VKorea
p5935
g5915
tp5936
aa(lp5937
(Vwe
p5938
Vnsubj
p5939
tp5940
a(Vcan
p5941
Vaux
p5942
tp5943
a(Vexpress
p5944
Vparataxis
p5945
tp5946
a(Vindeed
p5947
Vadvmod
p5948
tp5949
a(Vwe
p5950
g5939
tp5951
a(Vcan
p5952
g5942
tp5953
a(Vonly
p5954
Vadvmod
p5955
tp5956
a(Vobserve
p5957
g24
tp5958
a(Vso
p5959
Vadvmod
p5960
tp5961
a(Vcan
p5962
g5942
tp5963
a(Vcan
p5964
g5942
tp5965
a(Vwe
p5966
g5939
tp5967
aa(lp5968
(Vfailure
p5969
Vinfmod
p5970
tp5971
a(Vto
p5972
Vaux
p5973
tp5974
a(Vobserve
p5975
g24
tp5976
aa(lp5977
(Vwe
p5978
Vnsubj
p5979
tp5980
a(Vobserve
p5981
g24
tp5982
aa(lp5983
(Vhe
p5984
Vxsubj
p5985
tp5986
a(Vto
p5987
Vaux
p5988
tp5989
a(Vobserve
p5990
g24
tp5991
a(Vhe
p5992
g5985
tp5993
aa(lp5994
(VI
p5995
Vxsubj
p5996
tp5997
a(Vto
p5998
Vaux
p5999
tp6000
a(Vobserve
p6001
g24
tp6002
a(VI
p6003
g5996
tp6004
aa(lp6005
(Vearlier
p6006
Vccomp
p6007
tp6008
a(Vthat
p6009
Vmark
p6010
tp6011
a(Vdo
p6012
Vaux
p6013
tp6014
a(Vsometimes
p6015
Vadvmod
p6016
tp6017
a(Vobserve
p6018
g24
tp6019
aa(lp6020
(Vthey
p6021
Vxsubj
p6022
tp6023
a(Vthey
p6024
g6022
tp6025
a(Vfail
p6026
Vxcomp
p6027
tp6028
a(Vto
p6029
Vaux
p6030
tp6031
a(Vobserve
p6032
g24
tp6033
aa(lp6034
(Vday
p6035
Vprep_by
p6036
tp6037
a(Vamaze
p6038
Vdep
p6039
tp6040
a(Vyou
p6041
Vnsubj
p6042
tp6043
a(Vcan
p6044
Vaux
p6045
tp6046
a(Vobserve
p6047
g24
tp6048
a(Vdevelopment
p6049
Vdobj
p6050
tp6051
a(Vday
p6052
g6036
tp6053
aa(lp6054
(Vyou
p6055
Vxsubj
p6056
tp6057
a(Vyou
p6058
g6056
tp6059
a(Vgo
p6060
Vxcomp
p6061
tp6062
a(Vto
p6063
Vaux
p6064
tp6065
a(Vobserve
p6066
g24
tp6067
a(Vgo
p6068
g6061
tp6069
aa(lp6070
(Vexplanation
p6071
Vprepc_of
p6072
tp6073
a(Vwhy
p6074
Vadvmod
p6075
tp6076
a(Vwe
p6077
Vnsubj
p6078
tp6079
a(Vobserve
p6080
g24
tp6081
a(Vdirection
p6082
Vprep_in
p6083
tp6084
aa(lp6085
(Vto
p6086
Vaux
p6087
tp6088
a(Vobserve
p6089
g24
tp6090
a(Vteaching
p6091
Vdobj
p6092
tp6093
aa(lp6094
(Vto
p6095
Vaux
p6096
tp6097
a(Vboat
p6098
Vinfmod
p6099
tp6100
a(Vto
p6101
g6096
tp6102
a(Vobserve
p6103
g24
tp6104
a(Vlife
p6105
Vdobj
p6106
tp6107
aa(lp6108
(VI
p6109
Vnsubj
p6110
tp6111
a(Vtremble
p6112
Vdep
p6113
tp6114
a(VI
p6115
g6110
tp6116
a(Vmust
p6117
Vaux
p6118
tp6119
a(Vobserve
p6120
g24
tp6121
a(Vallow
p6122
Vccomp
p6123
tp6124
aa(lp6125
(Vtest
p6126
Vxsubj
p6127
tp6128
a(Vbe
p6129
Vxcomp
p6130
tp6131
a(Vto
p6132
Vaux
p6133
tp6134
a(Vobserve
p6135
g24
tp6136
a(Vrelationship
p6137
Vdobj
p6138
tp6139
aa(lp6140
(Vwe
p6141
Vnsubj
p6142
tp6143
a(Vcan
p6144
Vaux
p6145
tp6146
a(Vobserve
p6147
g24
tp6148
a(Vcohesion
p6149
Vprep_in
p6150
tp6151
aa(lp6152
(Vtribunal
p6153
Vnsubj
p6154
tp6155
a(Vmust
p6156
Vaux
p6157
tp6158
a(Vobserve
p6159
g24
tp6160
aa(lp6161
(V's
p6162
Vccomp
p6163
tp6164
a(Vto
p6165
Vaux
p6166
tp6167
a(V's
p6168
g6163
tp6169
a(Vhe
p6170
Vxsubj
p6171
tp6172
a(Vhe
p6173
g6171
tp6174
a(Vto
p6175
g6166
tp6176
a(Vhe
p6177
g6171
tp6178
a(Vto
p6179
g6166
tp6180
a(Vobserve
p6181
g24
tp6182
a(Vindirectly
p6183
Vadvmod
p6184
tp6185
aa(lp6186
(Vcould
p6187
Vaux
p6188
tp6189
a(Veven
p6190
Vadvmod
p6191
tp6192
a(Vobserve
p6193
g24
tp6194
a(Vsee
p6195
Vxcomp
p6196
tp6197
aa(lp6198
(Vto
p6199
Vaux
p6200
tp6201
a(Vdetect
p6202
Vconj_and
p6203
tp6204
a(Vto
p6205
g6200
tp6206
a(Vto
p6207
g6200
tp6208
a(Vobserve
p6209
g24
tp6210
a(Veffect
p6211
Vdobj
p6212
tp6213
aa(lp6214
(Vobserve
p6215
g24
tp6216
a(Vuse
p6217
Vdobj
p6218
tp6219
aa(lp6220
(Vto
p6221
Vaux
p6222
tp6223
a(Vto
p6224
g6222
tp6225
a(Vobserve
p6226
g24
tp6227
a(Vbehavior
p6228
Vdobj
p6229
tp6230
a(Vto
p6231
g6222
tp6232
aa(lp6233
(VMahmoud
p6234
Vnsubj
p6235
tp6236
a(Vobserve
p6237
g24
tp6238
a(Vresidue
p6239
Vprep_during
p6240
tp6241
aa(lp6242
(Vdoctor
p6243
Vnsubj
p6244
tp6245
a(Vcan
p6246
Vaux
p6247
tp6248
a(Vobserve
p6249
g24
tp6250
aa(lp6251
(Vrecognize
p6252
Vadvcl
p6253
tp6254
a(Veven
p6255
Vadvmod
p6256
tp6257
a(Vthough
p6258
Vmark
p6259
tp6260
a(Vthey
p6261
Vnsubj
p6262
tp6263
a(Vdo
p6264
Vaux
p6265
tp6266
a(Vnot
p6267
Vneg
p6268
tp6269
a(Vobserve
p6270
g24
tp6271
a(Vthey
p6272
g6262
tp6273
a(Vown
p6274
Vprep_than
p6275
tp6276
aa(lp6277
(Vto
p6278
Vaux
p6279
tp6280
a(Vobserve
p6281
g24
tp6282
a(Vmoratorium
p6283
Vdobj
p6284
tp6285
a(Vto
p6286
g6279
tp6287
a(Vresume
p6288
Vconj_and
p6289
tp6290
aa(lp6291
(Vto
p6292
Vaux
p6293
tp6294
a(Vthey
p6295
Vxsubj
p6296
tp6297
a(Vdifficult
p6298
Vxcomp
p6299
tp6300
a(Vto
p6301
g6293
tp6302
a(Vobserve
p6303
g24
tp6304
aa(lp6305
(VI
p6306
Vnsubj
p6307
tp6308
a(Vobserve
p6309
g24
tp6310
a(Vanything
p6311
Vdobj
p6312
tp6313
aa(lp6314
(Vto
p6315
Vaux
p6316
tp6317
a(Vmeeting
p6318
Vxsubj
p6319
tp6320
a(Vto
p6321
g6316
tp6322
a(Vobserve
p6323
g24
tp6324
a(Vlaw
p6325
Vdobj
p6326
tp6327
aa(lp6328
(Vwe
p6329
Vnsubj
p6330
tp6331
a(Vcan
p6332
Vaux
p6333
tp6334
a(Vobserve
p6335
g24
tp6336
aa(lp6337
(Vobserve
p6338
g24
tp6339
a(Vprinciple
p6340
Vdobj
p6341
tp6342
a(Vassume
p6343
Vadvcl
p6344
tp6345
aa(lp6346
(Vto
p6347
Vaux
p6348
tp6349
a(Vobserve
p6350
g24
tp6351
a(Vtap
p6352
Vccomp
p6353
tp6354
aa(lp6355
(Vtransferee
p6356
Vdep
p6357
tp6358
a(Vperform
p6359
Vconj_and
p6360
tp6361
a(Vobserve
p6362
g24
tp6363
aa(lp6364
(Vinteresting
p6365
Vxcomp
p6366
tp6367
a(Vto
p6368
Vaux
p6369
tp6370
a(Vobserve
p6371
g24
tp6372
a(Vreproduce
p6373
Vccomp
p6374
tp6375
aa(lp6376
(Vwe
p6377
Vxsubj
p6378
tp6379
a(Vneed
p6380
Vxcomp
p6381
tp6382
a(Vto
p6383
Vaux
p6384
tp6385
a(Vobserve
p6386
g24
tp6387
a(Verm
p6388
Vdobj
p6389
tp6390
aa(lp6391
(Vessential
p6392
Vxcomp
p6393
tp6394
a(Vto
p6395
Vaux
p6396
tp6397
a(Vobserve
p6398
g24
tp6399
a(Vto
p6400
g6396
tp6401
a(Vto
p6402
g6396
tp6403
aa(lp6404
(Vexamine
p6405
Vconj_and
p6406
tp6407
a(Vobserve
p6408
g24
tp6409
a(Vpositive
p6410
Vccomp
p6411
tp6412
a(Vnegative
p6413
Vccomp
p6414
tp6415
aa(lp6416
(Vto
p6417
Vaux
p6418
tp6419
a(Vimportant
p6420
Vxcomp
p6421
tp6422
a(Vto
p6423
g6418
tp6424
a(Vobserve
p6425
g24
tp6426
a(Vsame
p6427
Vccomp
p6428
tp6429
aa(lp6430
(VI
p6431
Vxsubj
p6432
tp6433
a(Vpause
p6434
Vxcomp
p6435
tp6436
a(Vto
p6437
Vaux
p6438
tp6439
a(Vobserve
p6440
g24
tp6441
a(Vstage
p6442
Vprep_at
p6443
tp6444
aa(lp6445
(Vlearn
p6446
Vxcomp
p6447
tp6448
a(Vto
p6449
Vaux
p6450
tp6451
a(Vobserve
p6452
g24
tp6453
aa(lp6454
(Vobserve
p6455
g24
tp6456
a(Vprovide
p6457
Vcsubj
p6458
tp6459
aa(lp6460
(Vcan
p6461
Vadvcl
p6462
tp6463
a(Vwe
p6464
Vnsubj
p6465
tp6466
a(Vmust
p6467
Vaux
p6468
tp6469
a(Vobserve
p6470
g24
tp6471
a(Vconstantly
p6472
Vadvmod
p6473
tp6474
aa(lp6475
(VI
p6476
Vxsubj
p6477
tp6478
a(Vto
p6479
Vaux
p6480
tp6481
a(Vobserve
p6482
g24
tp6483
a(Vreport
p6484
Vconj_and
p6485
tp6486
a(Vget
p6487
Vconj_and
p6488
tp6489
a(Vfall
p6490
Vconj_and
p6491
tp6492
aa(lp6493
(Vinteresting
p6494
Vxcomp
p6495
tp6496
a(Vto
p6497
Vaux
p6498
tp6499
a(Vobserve
p6500
g24
tp6501
a(Vto
p6502
g6498
tp6503
a(Vall
p6504
Vccomp
p6505
tp6506
aa(lp6507
(Vone
p6508
Vccomp
p6509
tp6510
a(Vhistory
p6511
Vprep_as
p6512
tp6513
a(Vthat
p6514
Vmark
p6515
tp6516
a(Vwe
p6517
Vnsubj
p6518
tp6519
a(Vobserve
p6520
g24
tp6521
a(Vhistory
p6522
g6512
tp6523
aa(lp6524
(Vit
p6525
Vxsubj
p6526
tp6527
a(Veasy
p6528
Vxcomp
p6529
tp6530
a(Vto
p6531
Vaux
p6532
tp6533
a(Vobserve
p6534
g24
tp6535
a(Vto
p6536
g6532
tp6537
aa(lp6538
(Vwe
p6539
Vnsubj
p6540
tp6541
a(Vobserve
p6542
g24
tp6543
a(Vone
p6544
Vdobj
p6545
tp6546
a(Vcm
p6547
Vdobj
p6548
tp6549
aa(lp6550
(Vto
p6551
Vaux
p6552
tp6553
a(Vobserve
p6554
g24
tp6555
a(VConstitution
p6556
Vdobj
p6557
tp6558
a(Vto
p6559
g6552
tp6560
a(Vserve
p6561
Vconj_and
p6562
tp6563
a(VConstitution
p6564
g6557
tp6565
aa(lp6566
(Vit
p6567
Vdobj
p6568
tp6569
a(Vwe
p6570
Vnsubj
p6571
tp6572
a(Vas
p6573
Vmark
p6574
tp6575
a(Vwe
p6576
g6571
tp6577
a(Vobserve
p6578
g24
tp6579
a(Vit
p6580
g6568
tp6581
aa(lp6582
(Vthat
p6583
Vmark
p6584
tp6585
a(Valmost
p6586
Vadvmod
p6587
tp6588
a(Vinvariably
p6589
Vadvmod
p6590
tp6591
a(Vobserve
p6592
g24
tp6593
aa(lp6594
(Vswift
p6595
Vccomp
p6596
tp6597
a(Vthat
p6598
Vmark
p6599
tp6600
a(VRuth
p6601
Vnsubj
p6602
tp6603
a(Vnot
p6604
Vneg
p6605
tp6606
a(Vobserve
p6607
g24
tp6608
a(Vit
p6609
Vdobj
p6610
tp6611
aa(lp6612
(Vnotion
p6613
Vxsubj
p6614
tp6615
a(Vto
p6616
Vaux
p6617
tp6618
a(Vfail
p6619
Vxcomp
p6620
tp6621
a(Vto
p6622
g6617
tp6623
a(Vobserve
p6624
g24
tp6625
a(Vanything
p6626
Vdobj
p6627
tp6628
a(Vaccurately
p6629
Vadvmod
p6630
tp6631
aa(lp6632
(VI
p6633
Vnsubj
p6634
tp6635
a(Vwould
p6636
Vaux
p6637
tp6638
a(Vobserve
p6639
g24
tp6640
aa(lp6641
(Vthey
p6642
Vxsubj
p6643
tp6644
a(Vdifficult
p6645
Vxcomp
p6646
tp6647
a(Vto
p6648
Vaux
p6649
tp6650
a(Vobserve
p6651
g24
tp6652
a(Vto
p6653
g6649
tp6654
a(Vprovide
p6655
Vxcomp
p6656
tp6657
aa(lp6658
(Vfalsehood
p6659
Vparataxis
p6660
tp6661
a(VI
p6662
Vnsubj
p6663
tp6664
a(Vwould
p6665
Vaux
p6666
tp6667
a(Vonly
p6668
Vadvmod
p6669
tp6670
a(Vobserve
p6671
g24
tp6672
aa(lp6673
(Vobserve
p6674
g24
tp6675
a(Vsince
p6676
Vmark
p6677
tp6678
a(Vone
p6679
Vnsubj
p6680
tp6681
a(Vnot
p6682
Vneg
p6683
tp6684
a(Vobserve
p6685
g24
tp6686
a(Vunexplained
p6687
Vadvcl
p6688
tp6689
aa(lp6690
(Vpoint
p6691
Vinfmod
p6692
tp6693
a(Vto
p6694
Vaux
p6695
tp6696
a(Vobserve
p6697
g24
tp6698
a(Vground
p6699
Vdobj
p6700
tp6701
aa(lp6702
(Vcourt
p6703
Vxsubj
p6704
tp6705
a(Vto
p6706
Vaux
p6707
tp6708
a(Vobserve
p6709
g24
tp6710
a(Vdemeanor
p6711
Vdobj
p6712
tp6713
aa(lp6714
(Vallow
p6715
Vxcomp
p6716
tp6717
a(Vto
p6718
Vaux
p6719
tp6720
a(Vobserve
p6721
g24
tp6722
aa(lp6723
(Vwill
p6724
Vaux
p6725
tp6726
a(Vobserve
p6727
g24
tp6728
a(Vhopefully
p6729
Vdep
p6730
tp6731
a(Vparticipate
p6732
Vconj_and
p6733
tp6734
aa(lp6735
(Vto
p6736
Vaux
p6737
tp6738
a(Vstaff
p6739
Vxsubj
p6740
tp6741
a(Vto
p6742
g6737
tp6743
a(Vobserve
p6744
g24
tp6745
aa(lp6746
(Vreason
p6747
Vnsubj
p6748
tp6749
a(Vwe
p6750
Vadvmod
p6751
tp6752
a(Vobserve
p6753
g24
tp6754
aa(lp6755
(Vto
p6756
Vaux
p6757
tp6758
a(Vobserve
p6759
g24
tp6760
a(VJohn
p6761
Vdobj
p6762
tp6763
a(VOliver
p6764
Vdobj
p6765
tp6766
a(Vtogether
p6767
Vadvmod
p6768
tp6769
aa(lp6770
(Vmenagerie
p6771
Vxsubj
p6772
tp6773
a(Vto
p6774
Vaux
p6775
tp6776
a(Vobserve
p6777
g24
tp6778
a(Valive
p6779
Vacomp
p6780
tp6781
aa(lp6782
(Vthing
p6783
Vinfmod
p6784
tp6785
a(Vto
p6786
Vaux
p6787
tp6788
a(Vobserve
p6789
g24
tp6790
aa(lp6791
(Vrule
p6792
Vinfmod
p6793
tp6794
a(Vto
p6795
Vaux
p6796
tp6797
a(Vobserve
p6798
g24
tp6799
a(Vto
p6800
g6796
tp6801
a(Vto
p6802
g6796
tp6803
aa(lp6804
(Vhe
p6805
Vnsubj
p6806
tp6807
a(Vrefer
p6808
Vconj_but
p6809
tp6810
a(Vhe
p6811
g6806
tp6812
a(Vobserve
p6813
g24
tp6814
a(Vseem
p6815
Vccomp
p6816
tp6817
aa(lp6818
(Vto
p6819
Vaux
p6820
tp6821
a(Vobserve
p6822
g24
tp6823
a(Vneutrality
p6824
Vdobj
p6825
tp6826
a(Vevent
p6827
Vprep_in
p6828
tp6829
a(Vto
p6830
g6820
tp6831
a(Vrefrain
p6832
Vconj_and
p6833
tp6834
aa(lp6835
(Vto
p6836
Vaux
p6837
tp6838
a(Vobserve
p6839
g24
tp6840
a(Vit
p6841
Vdobj
p6842
tp6843
aa(lp6844
(Vscientist
p6845
Vnsubj
p6846
tp6847
a(Vshould
p6848
Vaux
p6849
tp6850
a(Vobserve
p6851
g24
tp6852
a(Vfirst
p6853
Vadvmod
p6854
tp6855
a(Vpostulate
p6856
Vconj_and
p6857
tp6858
a(Vtreat
p6859
Vconj_and
p6860
tp6861
aa(lp6862
(Vwe
p6863
Vxsubj
p6864
tp6865
a(Vwe
p6866
g6864
tp6867
a(Vprivileged
p6868
Vxcomp
p6869
tp6870
a(Vto
p6871
Vaux
p6872
tp6873
a(Vobserve
p6874
g24
tp6875
aa(lp6876
(Vyou
p6877
Vxsubj
p6878
tp6879
a(Vwant
p6880
Vxcomp
p6881
tp6882
a(Vto
p6883
Vaux
p6884
tp6885
a(Vobserve
p6886
g24
tp6887
a(Vyou
p6888
g6878
tp6889
a(Vto
p6890
g6884
tp6891
aa(lp6892
(Vto
p6893
Vaux
p6894
tp6895
a(Vgo
p6896
Vdep
p6897
tp6898
a(Vto
p6899
g6894
tp6900
a(Vto
p6901
g6894
tp6902
a(Vobserve
p6903
g24
tp6904
a(Vtransit
p6905
Vdobj
p6906
tp6907
a(Vgo
p6908
g6897
tp6909
aa(lp6910
(Vpasserby
p6911
Vnsubj
p6912
tp6913
a(Vwould
p6914
Vaux
p6915
tp6916
a(Vobserve
p6917
g24
tp6918
a(Vurge
p6919
Vccomp
p6920
tp6921
aa(lp6922
(V1963
p6923
Vnsubj
p6924
tp6925
a(Vobserve
p6926
g24
tp6927
a(Vmanagement
p6928
Vprep_that
p6929
tp6930
aa(lp6931
(Vshe
p6932
Vxsubj
p6933
tp6934
a(Vto
p6935
Vaux
p6936
tp6937
a(Vobserve
p6938
g24
tp6939
a(VOctober
p6940
Vtmod
p6941
tp6942
a(Vdate
p6943
Vdobj
p6944
tp6945
aa(lp6946
(Vwe
p6947
Vnsubj
p6948
tp6949
a(Vwe
p6950
g6948
tp6951
a(Vwe
p6952
g6948
tp6953
a(Vwe
p6954
g6948
tp6955
a(Vobserve
p6956
g24
tp6957
a(Vparticipate
p6958
Vconj_or
p6959
tp6960
aa(lp6961
(Vwill
p6962
Vaux
p6963
tp6964
a(Vobserve
p6965
g24
tp6966
aa(lp6967
(Vwhen
p6968
Vadvmod
p6969
tp6970
a(Vwe
p6971
Vnsubj
p6972
tp6973
a(Vwe
p6974
g6972
tp6975
a(Vtime
p6976
Vtmod
p6977
tp6978
a(Vwhen
p6979
g6969
tp6980
a(Vwe
p6981
g6972
tp6982
a(Vobserve
p6983
g24
tp6984
a(Vaway
p6985
Vadvmod
p6986
tp6987
a(Vwe
p6988
g6972
tp6989
a(Vobserve
p6990
g24
tp6991
a(Vtime
p6992
g6977
tp6993
aa(lp6994
(Vyear
p6995
Vrcmod
p6996
tp6997
a(Vwe
p6998
Vnsubj
p6999
tp7000
a(Vobserve
p7001
g24
tp7002
aa(lp7003
(Vfail
p7004
Vxcomp
p7005
tp7006
a(Vto
p7007
Vaux
p7008
tp7009
a(Vfail
p7010
g7005
tp7011
a(Vto
p7012
g7008
tp7013
a(Vobserve
p7014
g24
tp7015
a(Vto
p7016
g7008
tp7017
a(Vvarious
p7018
Vprep_to
p7019
tp7020
aa(lp7021
(Vcould
p7022
Vaux
p7023
tp7024
a(Vobserve
p7025
g24
tp7026
aa(lp7027
(VI
p7028
Vnsubj
p7029
tp7030
a(Vobserve
p7031
g24
tp7032
a(Vstrive
p7033
Vccomp
p7034
tp7035
a(VI
p7036
g7029
tp7037
a(Vphilologist
p7038
Vccomp
p7039
tp7040
aa(lp7041
(Vapparent
p7042
Vadvcl
p7043
tp7044
a(Vwhen
p7045
Vadvmod
p7046
tp7047
a(Vwe
p7048
Vnsubj
p7049
tp7050
a(Vobserve
p7051
g24
tp7052
aa(lp7053
(Vyou
p7054
Vnsubj
p7055
tp7056
a(Vobserve
p7057
g24
tp7058
aa(lp7059
(Vopportunity
p7060
Vinfmod
p7061
tp7062
a(Vto
p7063
Vaux
p7064
tp7065
a(Vobserve
p7066
g24
tp7067
a(Vuse
p7068
Vdobj
p7069
tp7070
aa(lp7071
(Vobserve
p7072
g24
tp7073
aa(lp7074
(Vcan
p7075
Vccomp
p7076
tp7077
a(Veven
p7078
Vadvmod
p7079
tp7080
a(Vobserve
p7081
g24
tp7082
a(Vamplification
p7083
Vnsubj
p7084
tp7085
aa(lp7086
(Vto
p7087
Vaux
p7088
tp7089
a(Vto
p7090
g7088
tp7091
a(Vobserve
p7092
g24
tp7093
aa(lp7094
(Vthose
p7095
Vxsubj
p7096
tp7097
a(Vto
p7098
Vaux
p7099
tp7100
a(Vobserve
p7101
g24
tp7102
a(Vcondition
p7103
Vdobj
p7104
tp7105
aa(lp7106
(Vit
p7107
Vxsubj
p7108
tp7109
a(Vimportant
p7110
Vxcomp
p7111
tp7112
a(Vto
p7113
Vaux
p7114
tp7115
a(Vobserve
p7116
g24
tp7117
a(Vunit
p7118
Vdobj
p7119
tp7120
a(Vit
p7121
g7108
tp7122
a(Vto
p7123
g7114
tp7124
aa(lp7125
(Vto
p7126
Vaux
p7127
tp7128
a(Vbehavior
p7129
Vconj_and
p7130
tp7131
a(Vindicate
p7132
Vnsubj
p7133
tp7134
a(Vto
p7135
g7127
tp7136
a(Vobserve
p7137
g24
tp7138
a(Vevidence
p7139
Vdobj
p7140
tp7141
aa(lp7142
(Vto
p7143
Vaux
p7144
tp7145
a(Vdrill
p7146
Vxcomp
p7147
tp7148
a(Vto
p7149
g7144
tp7150
a(Vobserve
p7151
g24
tp7152
a(Vzone
p7153
Vprep_in
p7154
tp7155
aa(lp7156
(Vwe
p7157
Vnsubj
p7158
tp7159
a(Vaccept
p7160
Vccomp
p7161
tp7162
a(Vwe
p7163
g7158
tp7164
a(Vopen
p7165
Vconj_and
p7166
tp7167
a(Vwe
p7168
g7158
tp7169
a(Vobserve
p7170
g24
tp7171
a(Veverything
p7172
Vdobj
p7173
tp7174
a(Vwe
p7175
g7158
tp7176
aa(lp7177
(Vlight
p7178
Vprep_in
p7179
tp7180
a(Vanybody
p7181
Vnsubj
p7182
tp7183
a(Vshould
p7184
Vaux
p7185
tp7186
a(Vobserve
p7187
g24
tp7188
aa(lp7189
(Vto
p7190
Vaux
p7191
tp7192
a(Vobserve
p7193
g24
tp7194
a(Velsewhere
p7195
Vdobj
p7196
tp7197
aa(lp7198
(Vthe
p7199
Vnsubj
p7200
tp7201
a(Vthe
p7202
g7200
tp7203
a(Vobserve
p7204
g24
tp7205
a(Vthe
p7206
g7200
tp7207
a(Vthe
p7208
g7200
tp7209
a(Vthe
p7210
g7200
tp7211
aa(lp7212
(Vplan
p7213
Vadvcl
p7214
tp7215
a(Vbefore
p7216
Vmark
p7217
tp7218
a(Vyou
p7219
Vnsubj
p7220
tp7221
a(Vcan
p7222
Vaux
p7223
tp7224
a(Vobserve
p7225
g24
tp7226
a(Vbefore
p7227
g7217
tp7228
aa(lp7229
(Vobserve
p7230
g24
tp7231
a(Vobtain
p7232
Vdep
p7233
tp7234
a(Vdie
p7235
Vdep
p7236
tp7237
aa(lp7238
(Vto
p7239
Vaux
p7240
tp7241
a(Vmeasure
p7242
Vxcomp
p7243
tp7244
a(Vto
p7245
g7240
tp7246
a(Vobserve
p7247
g24
tp7248
a(Vbehavior
p7249
Vdobj
p7250
tp7251
aa(lp7252
(Vobserve
p7253
g24
tp7254
aa(lp7255
(Vto
p7256
Vaux
p7257
tp7258
a(Vto
p7259
g7257
tp7260
a(Vobserve
p7261
g24
tp7262
a(Vrange
p7263
Vdobj
p7264
tp7265
aa(lp7266
(Vobserve
p7267
g24
tp7268
a(Vhe
p7269
Vnsubj
p7270
tp7271
a(Vshe
p7272
Vnsubj
p7273
tp7274
a(Vcan
p7275
Vaux
p7276
tp7277
a(Vobserve
p7278
g24
tp7279
aa(lp7280
(Vto
p7281
Vaux
p7282
tp7283
a(Vyou
p7284
Vxsubj
p7285
tp7286
a(Vneed
p7287
Vxcomp
p7288
tp7289
a(Vto
p7290
g7282
tp7291
a(Vobserve
p7292
g24
tp7293
a(Vclosely
p7294
Vadvmod
p7295
tp7296
a(Vcompare
p7297
Vconj_and
p7298
tp7299
a(Vmake
p7300
Vconj_and
p7301
tp7302
a(Vuse
p7303
Vconj_and
p7304
tp7305
a(Vyou
p7306
g7285
tp7307
a(Vyou
p7308
g7285
tp7309
a(Vmake
p7310
g7301
tp7311
a(Vyou
p7312
g7285
tp7313
a(Vto
p7314
g7282
tp7315
aa(lp7316
(Vprocedure
p7317
Vnsubj
p7318
tp7319
a(Vobserve
p7320
g24
tp7321
a(Vinfluence
p7322
Vdobj
p7323
tp7324
aa(lp7325
(Vwe
p7326
Vnsubj
p7327
tp7328
a(Vobserve
p7329
g24
tp7330
a(VTable
p7331
Vprep_from
p7332
tp7333
aa(lp7334
(Vto
p7335
Vaux
p7336
tp7337
a(Vable
p7338
Vxcomp
p7339
tp7340
a(Vto
p7341
g7336
tp7342
a(Vobserve
p7343
g24
tp7344
a(Vsample
p7345
Vdobj
p7346
tp7347
aa(lp7348
(Vattempt
p7349
Vinfmod
p7350
tp7351
a(Vto
p7352
Vaux
p7353
tp7354
a(Vobserve
p7355
g24
tp7356
a(Vnot
p7357
Vccomp
p7358
tp7359
aa(lp7360
(Vobserve
p7361
g24
tp7362
aa(lp7363
(Vmake
p7364
Vprepc_from
p7365
tp7366
a(Vwhat
p7367
Vdobj
p7368
tp7369
a(Vone
p7370
Vnsubj
p7371
tp7372
a(Vwould
p7373
Vaux
p7374
tp7375
a(Vobserve
p7376
g24
tp7377
a(Vobserve
p7378
g24
tp7379
aa(lp7380
(VRHA
p7381
Vxsubj
p7382
tp7383
a(Vto
p7384
Vaux
p7385
tp7386
a(Vobserve
p7387
g24
tp7388
aa(lp7389
(Vwhat
p7390
Vdobj
p7391
tp7392
a(Vwe
p7393
Vnsubj
p7394
tp7395
a(Vshould
p7396
Vaux
p7397
tp7398
a(Vobserve
p7399
g24
tp7400
a(Vworld
p7401
Vprep_in
p7402
tp7403
aa(lp7404
(Vobserve
p7405
g24
tp7406
a(Vthink
p7407
Vccomp
p7408
tp7409
aa(lp7410
(Vsolution
p7411
Vnsubj
p7412
tp7413
a(Vobserve
p7414
g24
tp7415
a(Vbehavior
p7416
Vdobj
p7417
tp7418
aa(lp7419
(Vthey
p7420
Vnsubj
p7421
tp7422
a(Vtarget
p7423
Vdobj
p7424
tp7425
a(Vpoint
p7426
Vrcmod
p7427
tp7428
a(Vwhere
p7429
Vadvmod
p7430
tp7431
a(Vthey
p7432
g7421
tp7433
a(Vcould
p7434
Vaux
p7435
tp7436
a(Vobserve
p7437
g24
tp7438
a(Vtarget
p7439
g7424
tp7440
a(Vday
p7441
Vprep_during
p7442
tp7443
aa(lp7444
(Vto
p7445
Vaux
p7446
tp7447
a(Vto
p7448
g7446
tp7449
a(Vobserve
p7450
g24
tp7451
a(Vpractice
p7452
Vdobj
p7453
tp7454
aa(lp7455
(Vwe
p7456
Vnsubj
p7457
tp7458
a(Vcan
p7459
Vaux
p7460
tp7461
a(Vobserve
p7462
g24
tp7463
aa(lp7464
(Vsuit
p7465
Vxcomp
p7466
tp7467
a(Vto
p7468
Vaux
p7469
tp7470
a(Vobserve
p7471
g24
tp7472
a(Vturmoil
p7473
Vdobj
p7474
tp7475
aa(lp7476
(Vto
p7477
Vaux
p7478
tp7479
a(Vto
p7480
g7478
tp7481
a(Vto
p7482
g7478
tp7483
a(Vwho
p7484
Vxsubj
p7485
tp7486
a(Vto
p7487
g7478
tp7488
a(Vable
p7489
Vxcomp
p7490
tp7491
a(Vto
p7492
g7478
tp7493
a(Vobserve
p7494
g24
tp7495
aa(lp7496
(Vto
p7497
Vaux
p7498
tp7499
a(Vobserve
p7500
g24
tp7501
a(Vcentenary
p7502
Vdobj
p7503
tp7504
aa(lp7505
(Vnot
p7506
Vneg
p7507
tp7508
a(Vworry
p7509
Vadvcl
p7510
tp7511
a(Vif
p7512
Vmark
p7513
tp7514
a(Vyou
p7515
Vnsubj
p7516
tp7517
a(Vcan
p7518
Vaux
p7519
tp7520
a(Vnot
p7521
g7507
tp7522
a(Vobserve
p7523
g24
tp7524
aa(lp7525
(VI
p7526
Vxsubj
p7527
tp7528
a(Vto
p7529
Vaux
p7530
tp7531
a(Vto
p7532
g7530
tp7533
a(VI
p7534
g7527
tp7535
a(Vable
p7536
Vxcomp
p7537
tp7538
a(Vto
p7539
g7530
tp7540
a(Vobserve
p7541
g24
tp7542
a(Vclosely
p7543
Vadvmod
p7544
tp7545
aa(lp7546
(VSuchinda
p7547
Vxsubj
p7548
tp7549
a(Vto
p7550
Vaux
p7551
tp7552
a(Vobserve
p7553
g24
tp7554
a(Vto
p7555
g7551
tp7556
aa(lp7557
(Vtherefore
p7558
Vadvmod
p7559
tp7560
a(Vwe
p7561
Vnsubj
p7562
tp7563
a(Vobserve
p7564
g24
tp7565
a(Vregularity
p7566
Vdobj
p7567
tp7568
a(Vwe
p7569
g7562
tp7570
a(Vdo
p7571
Vadvcl
p7572
tp7573
a(Vwe
p7574
g7562
tp7575
a(Vsuggest
p7576
Vadvcl
p7577
tp7578
aa(lp7579
a(lp7580
(Vthat
p7581
Vmark
p7582
tp7583
a(Vrequire
p7584
Vccomp
p7585
tp7586
a(Vthat
p7587
g7582
tp7588
a(Vclosely
p7589
Vadvmod
p7590
tp7591
a(Vobserve
p7592
g24
tp7593
a(Vthat
p7594
g7582
tp7595
a(Vmake
p7596
Vconj_and
p7597
tp7598
a(Vthat
p7599
g7582
tp7600
aa(lp7601
(Vcogently
p7602
Vccomp
p7603
tp7604
a(Vsome
p7605
Vnsubj
p7606
tp7607
a(Vobserve
p7608
g24
tp7609
a(Vtrack
p7610
Vccomp
p7611
tp7612
aa(lp7613
(Vhow
p7614
Vadvmod
p7615
tp7616
a(Vto
p7617
Vaux
p7618
tp7619
a(Vlearn
p7620
Vccomp
p7621
tp7622
a(Vhow
p7623
g7615
tp7624
a(Vto
p7625
g7618
tp7626
a(Vobserve
p7627
g24
tp7628
a(Vchild
p7629
Vdobj
p7630
tp7631
a(Vto
p7632
g7618
tp7633
a(Vlearn
p7634
g7621
tp7635
a(Vhow
p7636
g7615
tp7637
a(Vto
p7638
g7618
tp7639
a(Vobserve
p7640
g24
tp7641
a(Vthemselves
p7642
Vdobj
p7643
tp7644
aa(lp7645
(Vobserve
p7646
g24
tp7647
a(Vstructure
p7648
Vdobj
p7649
tp7650
a(Vwe
p7651
Vxsubj
p7652
tp7653
a(Vable
p7654
Vxcomp
p7655
tp7656
a(Vto
p7657
Vaux
p7658
tp7659
a(Vobserve
p7660
g24
tp7661
a(Vstructure
p7662
g7649
tp7663
aa(lp7664
(Vfarm
p7665
Vnsubj
p7666
tp7667
a(Vcan
p7668
Vaux
p7669
tp7670
a(Vobserve
p7671
g24
tp7672
aa(lp7673
(Vto
p7674
Vaux
p7675
tp7676
a(Vto
p7677
g7675
tp7678
a(Vto
p7679
g7675
tp7680
a(Vto
p7681
g7675
tp7682
a(Vmake
p7683
Vxcomp
p7684
tp7685
a(Vto
p7686
g7675
tp7687
a(Vobserve
p7688
g24
tp7689
a(Vlegality
p7690
Vdobj
p7691
tp7692
aa(lp7693
(Vto
p7694
Vaux
p7695
tp7696
a(Vobserve
p7697
g24
tp7698
a(Vto
p7699
g7695
tp7700
aa(lp7701
(Vto
p7702
Vaux
p7703
tp7704
a(Vobserve
p7705
g24
tp7706
a(VCode
p7707
Vdobj
p7708
tp7709
a(Vto
p7710
g7703
tp7711
aa(lp7712
(Vcan
p7713
Vaux
p7714
tp7715
a(Vobserve
p7716
g24
tp7717
a(Vcomplex
p7718
Vdobj
p7719
tp7720
aa(lp7721
(Vyou
p7722
Vnsubj
p7723
tp7724
a(Vshould
p7725
Vaux
p7726
tp7727
a(Vobserve
p7728
g24
tp7729
a(Vscalloped
p7730
Vccomp
p7731
tp7732
aa(lp7733
(Vto
p7734
Vaux
p7735
tp7736
a(Vto
p7737
g7735
tp7738
a(Vobserve
p7739
g24
tp7740
a(Vceasefire
p7741
Vdobj
p7742
tp7743
aa(lp7744
(Vundertaking
p7745
Vinfmod
p7746
tp7747
a(Vto
p7748
Vaux
p7749
tp7750
a(Vobserve
p7751
g24
tp7752
a(Vwage-restraint
p7753
Vacomp
p7754
tp7755
a(Vto
p7756
g7749
tp7757
aa(lp7758
(Vmay
p7759
Vaux
p7760
tp7761
a(Vobserve
p7762
g24
tp7763
a(Vfuture
p7764
Vprep_in
p7765
tp7766
a(Vtrend
p7767
Vdobj
p7768
tp7769
aa(lp7770
(Vwe
p7771
Vnsubj
p7772
tp7773
a(Vmay
p7774
Vaux
p7775
tp7776
a(Vonly
p7777
Vadvmod
p7778
tp7779
a(Vobserve
p7780
g24
tp7781
a(Va
p7782
Vdobj
p7783
tp7784
aa(lp7785
(Vkeep
p7786
Vxcomp
p7787
tp7788
a(Veavesdrop
p7789
Vconj_and
p7790
tp7791
a(Vobserve
p7792
g24
tp7793
aa(lp7794
(VI
p7795
Vxsubj
p7796
tp7797
a(Vpause
p7798
Vxcomp
p7799
tp7800
a(Vto
p7801
Vaux
p7802
tp7803
a(Vobserve
p7804
g24
tp7805
a(Vtime
p7806
Vccomp
p7807
tp7808
aa(lp7809
(Vyou
p7810
Vnsubj
p7811
tp7812
a(Vobserve
p7813
g24
tp7814
a(Vcommon-sense
p7815
Vdobj
p7816
tp7817
a(Vyou
p7818
g7811
tp7819
aa(lp7820
(VI
p7821
Vxsubj
p7822
tp7823
a(Vto
p7824
Vaux
p7825
tp7826
a(VI
p7827
g7822
tp7828
a(Vwelcome
p7829
Vxcomp
p7830
tp7831
a(Vto
p7832
g7825
tp7833
a(Vobserve
p7834
g24
tp7835
a(Vspectacle
p7836
Vdobj
p7837
tp7838
a(Vtime
p7839
Vprep_at
p7840
tp7841
aa(lp7842
(Vinteresting
p7843
Vdep
p7844
tp7845
a(Vto
p7846
Vaux
p7847
tp7848
a(Vnote
p7849
Vconj_and
p7850
tp7851
a(Vto
p7852
g7847
tp7853
a(Vto
p7854
g7847
tp7855
a(Vobserve
p7856
g24
tp7857
a(Veffect
p7858
Vdobj
p7859
tp7860
a(Vhealth
p7861
Vprep_on
p7862
tp7863
aa(lp7864
(Vway
p7865
Vrcmod
p7866
tp7867
a(Vwe
p7868
Vnsubj
p7869
tp7870
a(Vlook
p7871
Vconj_and
p7872
tp7873
a(Vobserve
p7874
g24
tp7875
a(Vprocess
p7876
Vdobj
p7877
tp7878
aa(lp7879
(Vto
p7880
Vaux
p7881
tp7882
a(Vnominate
p7883
Vxcomp
p7884
tp7885
a(Vto
p7886
g7881
tp7887
a(Vobserve
p7888
g24
tp7889
a(Vconduct
p7890
Vconj_or
p7891
tp7892
aa(lp7893
(Vpicture
p7894
Vdobj
p7895
tp7896
a(Vwhether
p7897
Vmark
p7898
tp7899
a(Vobserve
p7900
g24
tp7901
a(Vpicture
p7902
g7895
tp7903
aa(lp7904
(Vto
p7905
Vaux
p7906
tp7907
a(Vobserve
p7908
g24
tp7909
aa(lp7910
(Vnurse
p7911
Vccomp
p7912
tp7913
a(Vshould
p7914
Vaux
p7915
tp7916
a(Vobserve
p7917
g24
tp7918
a(Vwound
p7919
Vdobj
p7920
tp7921
a(Vexcess
p7922
Vprep_for
p7923
tp7924
a(Vhaemorrhage
p7925
Vprep_for
p7926
tp7927
a(Vprotect
p7928
Vconj_and
p7929
tp7930
a(Vwound
p7931
g7920
tp7932
aa(lp7933
(Vobserve
p7934
g24
tp7935
aa(lp7936
(Vto
p7937
Vaux
p7938
tp7939
a(Vplenty
p7940
Vinfmod
p7941
tp7942
a(Vto
p7943
g7938
tp7944
a(Vobserve
p7945
g24
tp7946
aa(lp7947
(Vwe
p7948
Vnsubj
p7949
tp7950
a(Vlaw
p7951
Vdobj
p7952
tp7953
a(Vfederation
p7954
Vmark
p7955
tp7956
a(Vwe
p7957
g7949
tp7958
a(Vwe
p7959
g7949
tp7960
a(Vobserve
p7961
g24
tp7962
a(Vlaw
p7963
g7952
tp7964
aa(lp7965
(Vadmire
p7966
Vdep
p7967
tp7968
a(Vobserve
p7969
g24
tp7970
a(Vuse
p7971
Vconj_and
p7972
tp7973
aa(lp7974
(Vthat
p7975
Vmark
p7976
tp7977
a(Vthat
p7978
g7976
tp7979
a(Vable
p7980
Vccomp
p7981
tp7982
a(Vthat
p7983
g7976
tp7984
a(Vthat
p7985
g7976
tp7986
a(Vwe
p7987
Vnsubj
p7988
tp7989
a(Vobserve
p7990
g24
tp7991
aa(lp7992
(VI
p7993
Vnsubj
p7994
tp7995
a(Vescort
p7996
Vconj_but
p7997
tp7998
a(VI
p7999
g7994
tp8000
a(Vshall
p8001
Vaux
p8002
tp8003
a(Vobserve
p8004
g24
tp8005
aa(lp8006
(Vif
p8007
Vmark
p8008
tp8009
a(Vthey
p8010
Vnsubj
p8011
tp8012
a(Vobserve
p8013
g24
tp8014
a(Vthey
p8015
g8011
tp8016
a(Vthey
p8017
g8011
tp8018
aa(lp8019
(Vcan
p8020
Vaux
p8021
tp8022
a(Vobserve
p8023
g24
tp8024
a(Vtransition
p8025
Vdobj
p8026
tp8027
a(Vseem
p8028
Vconj_but
p8029
tp8030
aa(lp8031
(Vto
p8032
Vaux
p8033
tp8034
a(Vwant
p8035
Vxcomp
p8036
tp8037
a(Vyou
p8038
Vnsubj
p8039
tp8040
a(Vto
p8041
g8033
tp8042
a(Vobserve
p8043
g24
tp8044
a(Vto
p8045
g8033
tp8046
a(Vto
p8047
g8033
tp8048
a(Vto
p8049
g8033
tp8050
aa(lp8051
(Vuniverse
p8052
Vdobj
p8053
tp8054
a(Vuniverse
p8055
g8053
tp8056
a(Vwe
p8057
Vnsubj
p8058
tp8059
a(Vobserve
p8060
g24
tp8061
aa(lp8062
(Vobserve
p8063
g24
tp8064
aa(lp8065
(VI
p8066
Vnsubj
p8067
tp8068
a(Vsit
p8069
Vconj_and
p8070
tp8071
a(Vobserve
p8072
g24
tp8073
a(Vsomeone
p8074
Vdobj
p8075
tp8076
aa(lp8077
(Vtenant
p8078
Vinfmod
p8079
tp8080
a(Vto
p8081
Vaux
p8082
tp8083
a(Vobserve
p8084
g24
tp8085
a(Vto
p8086
g8082
tp8087
a(Vsubject
p8088
Vprepc_to
p8089
tp8090
aa(lp8091
(Vto
p8092
Vaux
p8093
tp8094
a(Vto
p8095
g8093
tp8096
a(Vobserve
p8097
g24
tp8098
aa(lp8099
(Vpolice
p8100
Vinfmod
p8101
tp8102
a(Vto
p8103
Vaux
p8104
tp8105
a(Vobserve
p8106
g24
tp8107
aa(lp8108
(Vjob
p8109
Vprep_for
p8110
tp8111
a(Vthey
p8112
Vnsubj
p8113
tp8114
a(Vobserve
p8115
g24
tp8116
a(Vrule
p8117
Vdobj
p8118
tp8119
aa(lp8120
(Vto
p8121
Vaux
p8122
tp8123
a(Vobserve
p8124
g24
tp8125
a(Vhimself
p8126
Vprep_within
p8127
tp8128
aa(lp8129
(Vto
p8130
Vaux
p8131
tp8132
a(Vobserve
p8133
g24
tp8134
a(Vperiod
p8135
Vdobj
p8136
tp8137
a(Vperiod
p8138
g8136
tp8139
a(Vto
p8140
g8131
tp8141
aa(lp8142
(VCarolan
p8143
Vdep
p8144
tp8145
a(Vwhen
p8146
Vadvmod
p8147
tp8148
a(Vwould
p8149
Vaux
p8150
tp8151
a(Vobserve
p8152
g24
tp8153
a(Vloftily
p8154
Vadvmod
p8155
tp8156
a(Vtrust
p8157
Vccomp
p8158
tp8159
aa(lp8160
(Vshe
p8161
Vxsubj
p8162
tp8163
a(Vto
p8164
Vaux
p8165
tp8166
a(Vobserve
p8167
g24
tp8168
a(Vscene
p8169
Vdobj
p8170
tp8171
a(Vcheck
p8172
Vconj_and
p8173
tp8174
a(Vto
p8175
g8165
tp8176
aa(lp8177
(Vto
p8178
Vaux
p8179
tp8180
a(Vobserve
p8181
g24
tp8182
a(Vattend
p8183
Vconj_and
p8184
tp8185
aa(lp8186
(VSir
p8187
Vxsubj
p8188
tp8189
a(Vto
p8190
Vaux
p8191
tp8192
a(Vobserve
p8193
g24
tp8194
aa(lp8195
a(lp8196
(Vwe
p8197
Vnsubj
p8198
tp8199
a(Vwe
p8200
g8198
tp8201
a(Vobserve
p8202
g24
tp8203
a(Vwe
p8204
g8198
tp8205
a(Vwe
p8206
g8198
tp8207
aa(lp8208
(Vwhen
p8209
Vadvmod
p8210
tp8211
a(Vobserve
p8212
g24
tp8213
a(Vlikely
p8214
Vadvcl
p8215
tp8216
aa(lp8217
(Vwant
p8218
Vadvcl
p8219
tp8220
a(Vobserve
p8221
g24
tp8222
a(Vit
p8223
Vnsubj
p8224
tp8225
aa(lp8226
(Vprince
p8227
Vdobj
p8228
tp8229
a(Vthey
p8230
Vnsubj
p8231
tp8232
a(Vthey
p8233
g8231
tp8234
a(Vthey
p8235
g8231
tp8236
a(Vobserve
p8237
g24
tp8238
a(Vprince
p8239
g8228
tp8240
a(Vdelight
p8241
Vprep_to
p8242
tp8243
aa(lp8244
(Vlike
p8245
Vmark
p8246
tp8247
a(Vto
p8248
Vaux
p8249
tp8250
a(Vobserve
p8251
g24
tp8252
aa(lp8253
(Vfailure
p8254
Vinfmod
p8255
tp8256
a(Vto
p8257
Vaux
p8258
tp8259
a(Vobserve
p8260
g24
tp8261
a(Vpractice
p8262
Vdobj
p8263
tp8264
a(Vto
p8265
g8258
tp8266
a(Vto
p8267
g8258
tp8268
aa(lp8269
(Vopponent
p8270
Vprep_in
p8271
tp8272
a(Vobserve
p8273
g24
tp8274
a(Vx
p8275
Vnsubj
p8276
tp8277
aa(lp8278
(VI
p8279
Vnsubj
p8280
tp8281
a(Vobserve
p8282
g24
tp8283
a(Vforeigner
p8284
Vccomp
p8285
tp8286
aa(lp8287
(Vwe
p8288
Vnsubj
p8289
tp8290
a(Vobserve
p8291
g24
tp8292
a(Vwe
p8293
g8289
tp8294
aa(lp8295
(Vexpect
p8296
Vxcomp
p8297
tp8298
a(Vyou
p8299
Vnsubj
p8300
tp8301
a(Vto
p8302
Vaux
p8303
tp8304
a(Vobserve
p8305
g24
tp8306
a(Vet
p8307
Vprep_as
p8308
tp8309
a(Vout
p8310
Vprep
p8311
tp8312
aa(lp8313
(Vaudience
p8314
Vxsubj
p8315
tp8316
a(Vto
p8317
Vaux
p8318
tp8319
a(Vobserve
p8320
g24
tp8321
a(Vsilence
p8322
Vdobj
p8323
tp8324
aa(lp8325
(Vrun
p8326
Vadvcl
p8327
tp8328
a(Vso
p8329
Vadvmod
p8330
tp8331
a(Vas
p8332
Vmark
p8333
tp8334
a(Vto
p8335
Vaux
p8336
tp8337
a(Vobserve
p8338
g24
tp8339
a(Vit
p8340
Vdobj
p8341
tp8342
a(Vcycle
p8343
Vprep_throughout
p8344
tp8345
aa(lp8346
(Vinteresting
p8347
Vxcomp
p8348
tp8349
a(Vto
p8350
Vaux
p8351
tp8352
a(Vobserve
p8353
g24
tp8354
a(Vrespect
p8355
Vprep_in
p8356
tp8357
aa(lp8358
(Vto
p8359
Vaux
p8360
tp8361
a(Vobserve
p8362
g24
tp8363
a(Veffect
p8364
Vdobj
p8365
tp8366
aa(lp8367
(Vwe
p8368
Vnsubj
p8369
tp8370
a(Vobserve
p8371
g24
tp8372
a(Vresidence
p8373
Vdobj
p8374
tp8375
aa(lp8376
(Vmeaning
p8377
Vpartmod
p8378
tp8379
a(Vpursuit
p8380
Vdobj
p8381
tp8382
a(Vmeaning
p8383
g8378
tp8384
a(Vwe
p8385
Vnsubj
p8386
tp8387
a(Vcan
p8388
Vaux
p8389
tp8390
a(Vnow
p8391
Vadvmod
p8392
tp8393
a(Vobserve
p8394
g24
tp8395
a(Vpursuit
p8396
g8381
tp8397
aa(lp8398
(Vthey
p8399
Vxsubj
p8400
tp8401
a(Vable
p8402
Vxcomp
p8403
tp8404
a(Vto
p8405
Vaux
p8406
tp8407
a(Vobserve
p8408
g24
tp8409
a(Vchild
p8410
Vdobj
p8411
tp8412
aa(lp8413
(Vobserve
p8414
g24
tp8415
a(Vdistance
p8416
Vprep_in
p8417
tp8418
a(Vthen
p8419
Vadvmod
p8420
tp8421
a(Vmove
p8422
Vdep
p8423
tp8424
aa(lp8425
(Vto
p8426
Vaux
p8427
tp8428
a(Vobserve
p8429
g24
tp8430
a(Vobey
p8431
Vconj_and
p8432
tp8433
aa(lp8434
(Vgood
p8435
Vxcomp
p8436
tp8437
a(Vto
p8438
Vaux
p8439
tp8440
a(Vobserve
p8441
g24
tp8442
a(Vdiet
p8443
Vdobj
p8444
tp8445
aa(lp8446
(Vpeople
p8447
Vnsubj
p8448
tp8449
a(Vobserve
p8450
g24
tp8451
a(Vread
p8452
Vconj_or
p8453
tp8454
aa(lp8455
(Vwill
p8456
Vaux
p8457
tp8458
a(Vobserve
p8459
g24
tp8460
a(Vauthority
p8461
Vccomp
p8462
tp8463
aa(lp8464
(Vwe
p8465
Vnsubj
p8466
tp8467
a(Vobserve
p8468
g24
tp8469
a(Veuphoria
p8470
Vprep_in
p8471
tp8472
aa(lp8473
(Vwe
p8474
Vnsubj
p8475
tp8476
a(Vuniverse
p8477
Vadvcl
p8478
tp8479
a(Vuniverse
p8480
g8478
tp8481
a(Vas
p8482
Vmark
p8483
tp8484
a(Vwe
p8485
g8475
tp8486
a(Vobserve
p8487
g24
tp8488
a(Vprovide
p8489
Vccomp
p8490
tp8491
a(Vobserve
p8492
g24
tp8493
aa(lp8494
(Vthat
p8495
Vmark
p8496
tp8497
a(Vobserve
p8498
g24
tp8499
a(Vadopt
p8500
Vconj_and
p8501
tp8502
a(Vthat
p8503
g8496
tp8504
aa(lp8505
(Vmight
p8506
Vaux
p8507
tp8508
a(Vobserve
p8509
g24
tp8510
aa(lp8511
(Vto
p8512
Vaux
p8513
tp8514
a(Vto
p8515
g8513
tp8516
a(Vobserve
p8517
g24
tp8518
a(Vrule
p8519
Vdobj
p8520
tp8521
aa(lp8522
(VHiscock
p8523
Vnsubj
p8524
tp8525
a(Vthereby
p8526
Vadvmod
p8527
tp8528
a(Vobserve
p8529
g24
tp8530
a(Vinteraction
p8531
Vdobj
p8532
tp8533
aa(lp8534
(Vto
p8535
Vaux
p8536
tp8537
a(Vto
p8538
g8536
tp8539
a(Vobserve
p8540
g24
tp8541
aa(lp8542
(Vdo
p8543
Vaux
p8544
tp8545
a(Vprofessorsand
p8546
Vdobj
p8547
tp8548
a(Vthey
p8549
Vnsubj
p8550
tp8551
a(Vdo
p8552
g8544
tp8553
a(Vfurther
p8554
Vadvmod
p8555
tp8556
a(Vobserve
p8557
g24
tp8558
a(Vthey
p8559
g8550
tp8560
a(Vready
p8561
Vccomp
p8562
tp8563
aa.