(lp0
(lp1
(Vsound
p2
Vconj_and
p3
tp4
a(Vyou
p5
Vnsubj
p6
tp7
a(Vwill
p8
Vaux
p9
tp10
a(Vnot
p11
Vneg
p12
tp13
a(Veasily
p14
Vadvmod
p15
tp16
a(Vobserve
p17
S'TARGET'
p18
tp19
a(Vanalysis
p20
Vprep_without
p21
tp22
aa(lp23
(Vsee
p24
Vccomp
p25
tp26
a(Vcenter
p27
Vnsubj
p28
tp29
a(Vobserve
p30
g18
tp31
a(Vmeeting
p32
Vdobj
p33
tp34
aa(lp35
(Vobservation
p36
Vnsubj
p37
tp38
a(Vmean
p39
Vconj_and
p40
tp41
a(Vobserve
p42
g18
tp43
a(Vchild
p44
Vdobj
p45
tp46
aa(lp47
(Vattempt
p48
Vinfmod
p49
tp50
a(Vto
p51
Vaux
p52
tp53
a(Vfirst
p54
Vadvmod
p55
tp56
a(Vobserve
p57
g18
tp58
a(Vphenomenon
p59
Vdobj
p60
tp61
a(Vthen
p62
Vadvmod
p63
tp64
a(Vexplore
p65
Vdep
p66
tp67
aa(lp68
(Vincrease
p69
Vadvcl
p70
tp71
a(Vso
p72
Vmark
p73
tp74
a(Vthat
p75
Vmark
p76
tp77
a(Vyou
p78
Vnsubj
p79
tp80
a(Vstudent
p81
Vnsubj
p82
tp83
a(Vcan
p84
Vaux
p85
tp86
a(Vobserve
p87
g18
tp88
a(Vposition
p89
Vdobj
p90
tp91
aa(lp92
(Vcovenant
p93
Vinfmod
p94
tp95
a(Vto
p96
Vaux
p97
tp98
a(Vobserve
p99
g18
tp100
a(Vperform
p101
Vconj_and
p102
tp103
a(Vterm
p104
Vdobj
p105
tp106
a(Vwife
p107
Vprep_by
p108
tp109
aa(lp110
(Vwe
p111
Vxsubj
p112
tp113
a(Vhave
p114
Vxcomp
p115
tp116
a(Vto
p117
Vaux
p118
tp119
a(Vobserve
p120
g18
tp121
a(VConvention
p122
Vdobj
p123
tp124
a(Vinterpret
p125
Vadvcl
p126
tp127
aa(lp128
(Vif
p129
Vmark
p130
tp131
a(Vwe
p132
Vnsubj
p133
tp134
a(Vobserve
p135
g18
tp136
a(Vspeaker
p137
Vdobj
p138
tp139
a(Vnotice
p140
Vadvcl
p141
tp142
aa(lp143
(Vyou
p144
Vxsubj
p145
tp146
a(Vgo
p147
Vxcomp
p148
tp149
a(Vto
p150
Vaux
p151
tp152
a(Vobserve
p153
g18
tp154
a(Vdevise
p155
Vconj_and
p156
tp157
a(Vnumber
p158
Vdobj
p159
tp160
a(Vmonitor
p161
Vxcomp
p162
tp163
aa(lp164
(Vreaction
p165
Vdobj
p166
tp167
a(g165
Vrcmod
p168
tp169
a(Vwe
p170
Vnsubj
p171
tp172
a(Vobserve
p173
g18
tp174
a(Vdcm
p175
Vprep_with
p176
tp177
aa(lp178
(Vwhen
p179
Vadvmod
p180
tp181
a(Vwe
p182
Vnsubj
p183
tp184
a(Vobserve
p185
g18
tp186
a(Vobject
p187
Vdobj
p188
tp189
a(Vobserve
p190
Vadvcl
p191
tp192
aa(lp193
(VI
p194
Vxsubj
p195
tp196
a(Vable
p197
Vxcomp
p198
tp199
a(Vto
p200
Vaux
p201
tp202
a(Vobserve
p203
g18
tp204
aa(lp205
(Vmarket
p206
Vroot
p207
tp208
a(Vrelevance
p209
Vprep_of
p210
tp211
a(Vhere
p212
Vadvmod
p213
tp214
a(Vthey
p215
Vnsubj
p216
tp217
a(Valso
p218
Vadvmod
p219
tp220
a(Vobserve
p221
g18
tp222
a(Vreason
p223
Vccomp
p224
tp225
aa(lp226
(Vboring
p227
Vroot
p228
tp229
a(Vshe
p230
Vnsubj
p231
tp232
a(Vcould
p233
Vaux
p234
tp235
a(Vhardly
p236
Vadvmod
p237
tp238
a(Vobserve
p239
g18
tp240
a(Valoud
p241
Vadvmod
p242
tp243
a(g227
Vccomp
p244
tp245
aa(lp246
(Vacquaint
p247
Vroot
p248
tp249
a(Vcourse
p250
Vprep_in
p251
tp252
a(Vanthropologist
p253
Vnsubj
p254
tp255
a(Vwill
p256
Vaux
p257
tp258
a(Vobserve
p259
g18
tp260
a(Vdetail
p261
Vprep_in
p262
tp263
a(Vinteraction
p264
Vdobj
p265
tp266
aa(lp267
(Vseries
p268
Vconj_and
p269
tp270
a(Vso
p271
Vdep
p272
tp273
a(Vwe
p274
Vnsubj
p275
tp276
a(Vobserve
p277
g18
tp278
a(Vprogression
p279
Vdobj
p280
tp281
a(Vfrequency
p282
Vprep_in
p283
tp284
aa(lp285
(Vscientist
p286
Vdep
p287
tp288
a(Vastronomer
p289
Vnsubj
p290
tp291
a(Vsimply
p292
Vadvmod
p293
tp294
a(Vobserve
p295
g18
tp296
a(Vshe
p297
Vdobj
p298
tp299
aa(lp300
(Vextent
p301
Vprep_to
p302
tp303
a(g301
Vrcmod
p304
tp305
a(Vwe
p306
Vnsubj
p307
tp308
a(Vobserve
p309
g18
tp310
a(Vachievement
p311
Vdobj
p312
tp313
a(Vcircumstance
p314
Vprep_to
p315
tp316
aa(lp317
(Vyou
p318
Vxsubj
p319
tp320
a(Vtend
p321
Vxcomp
p322
tp323
a(Vto
p324
Vaux
p325
tp326
a(Vobserve
p327
g18
tp328
a(Vbe
p329
Vccomp
p330
tp331
aa(lp332
(Vhappen
p333
Vconj_and
p334
tp335
a(Vwe
p336
Vnsubj
p337
tp338
a(Vobserve
p339
g18
tp340
aa(lp341
(Vit
p342
Vxsubj
p343
tp344
a(Vtrite
p345
Vxcomp
p346
tp347
a(Vto
p348
Vaux
p349
tp350
a(Vobserve
p351
g18
tp352
a(Vbe
p353
Vccomp
p354
tp355
aa(lp356
(Vdefinition
p357
Vdobj
p358
tp359
a(g357
Vrcmod
p360
tp361
a(Vthey
p362
Vnsubj
p363
tp364
a(Vobserve
p365
g18
tp366
a(Vdo
p367
Vprepc_in
p368
tp369
aa(lp370
(Vson
p371
Vinfmod
p372
tp373
a(Vread
p374
Vconj_and
p375
tp376
a(Vobserve
p377
g18
tp378
aa(lp379
(Vtrp
p380
Vroot
p381
tp382
a(Vsee
p383
Vadvcl
p384
tp385
a(Vwe
p386
Vnsubj
p387
tp388
a(Vfirst
p389
Vadvmod
p390
tp391
a(Vobserve
p392
g18
tp393
a(Vbe
p394
Vccomp
p395
tp396
aa(lp397
(Vthey
p398
Vxsubj
p399
tp400
a(Veasy
p401
Vxcomp
p402
tp403
a(Vto
p404
Vaux
p405
tp406
a(Vobserve
p407
g18
tp408
aa(lp409
(Vcapacity
p410
Vinfmod
p411
tp412
a(Vto
p413
Vaux
p414
tp415
a(Vobserve
p416
g18
tp417
a(Vfeeling
p418
Vdobj
p419
tp420
a(Vattitude
p421
Vdobj
p422
tp423
a(Vbehavior
p424
Vdobj
p425
tp426
a(Vhave
p427
Vprepc_by
p428
tp429
aa(lp430
(Vcompany
p431
Vnsubj
p432
tp433
a(g431
Vrcmod
p434
tp435
a(Vwill
p436
Vaux
p437
tp438
a(Vobserve
p439
g18
tp440
a(VCode
p441
Vdobj
p442
tp443
aa(lp444
(Vchance
p445
Vinfmod
p446
tp447
a(Vto
p448
Vaux
p449
tp450
a(Vobserve
p451
g18
tp452
a(Vlot
p453
Vprep_for
p454
tp455
aa(lp456
(Vyou
p457
Vrcmod
p458
tp459
a(Vremain
p460
Vconj_and
p461
tp462
a(Vcould
p463
Vaux
p464
tp465
a(Vobserve
p466
g18
tp467
a(Vcustom
p468
Vdobj
p469
tp470
aa(lp471
(Vit
p472
Vxsubj
p473
tp474
a(Vuncommon
p475
Vxcomp
p476
tp477
a(Vto
p478
Vaux
p479
tp480
a(Vobserve
p481
g18
tp482
a(Vpriest
p483
Vdobj
p484
tp485
a(Vstupa
p486
Vdobj
p487
tp488
aa(lp489
(Vorder
p490
Vxcomp
p491
tp492
a(Vforce
p493
Vnsubj
p494
tp495
a(Vto
p496
Vaux
p497
tp498
a(Vobserve
p499
g18
tp500
a(Vceasefire
p501
Vdobj
p502
tp503
a(Vdemobilize
p504
Vadvcl
p505
tp506
aa(lp507
(Vadmit
p508
Vccomp
p509
tp510
a(Vnurse
p511
Vnsubj
p512
tp513
a(Vshould
p514
Vaux
p515
tp516
a(Vobserve
p517
g18
tp518
a(Vskin
p519
Vdobj
p520
tp521
aa(lp522
(Vcounsellor
p523
Vxsubj
p524
tp525
a(Vable
p526
Vxcomp
p527
tp528
a(Vto
p529
Vaux
p530
tp531
a(Vobserve
p532
g18
tp533
a(Vspark
p534
Vccomp
p535
tp536
aa(lp537
(Vfailure
p538
Vinfmod
p539
tp540
a(Vto
p541
Vaux
p542
tp543
a(Vobserve
p544
g18
tp545
a(Vtaboo
p546
Vdobj
p547
tp548
a(Vshortcoming
p549
Vdobj
p550
tp551
a(Vconduct
p552
Vprep_in
p553
tp554
aa(lp555
(Vspeak
p556
Vccomp
p557
tp558
a(Vhave
p559
Vconj_and
p560
tp561
a(Vto
p562
Vaux
p563
tp564
a(Vobserve
p565
g18
tp566
a(Vlanguage
p567
Vdobj
p568
tp569
aa(lp570
(Vfailure
p571
Vinfmod
p572
tp573
a(Vto
p574
Vaux
p575
tp576
a(Vobserve
p577
g18
tp578
a(Vcondition
p579
Vdobj
p580
tp581
aa(lp582
(Vsubject
p583
Vprep_to
p584
tp585
a(VAssessment
p586
Vconj_and
p587
tp588
a(Vwe
p589
Vnsubj
p590
tp591
a(Vwill
p592
Vaux
p593
tp594
a(Vfully
p595
Vadvmod
p596
tp597
a(Vobserve
p598
g18
tp599
a(Vrequirement
p600
Vdobj
p601
tp602
a(Veia
p603
Vprep_on
p604
tp605
aa(lp606
(Vpause
p607
Vxcomp
p608
tp609
a(Vto
p610
Vaux
p611
tp612
a(Vobserve
p613
g18
tp614
a(VCordoba
p615
Vccomp
p616
tp617
aa(lp618
(Vattend
p619
Vparataxis
p620
tp621
a(Vobserve
p622
g18
tp623
a(Vtrial
p624
Vdobj
p625
tp626
aa(lp627
(Vit
p628
Vrcmod
p629
tp630
a(Vcan
p631
Vaux
p632
tp633
a(Vobserve
p634
g18
tp635
a(Vanimal
p636
Vdobj
p637
tp638
aa(lp639
(Vduty
p640
Vinfmod
p641
tp642
a(Vto
p643
Vaux
p644
tp645
a(Vobserve
p646
g18
tp647
a(Vfairness
p648
Vdobj
p649
tp650
aa(lp651
(Vthey
p652
Vxsubj
p653
tp654
a(Vcontain
p655
Vxcomp
p656
tp657
a(Vto
p658
Vaux
p659
tp660
a(Vobserve
p661
g18
tp662
a(Vprovision
p663
Vdobj
p664
tp665
aa(lp666
(Vit
p667
Vxsubj
p668
tp669
a(Vinteresting
p670
Vxcomp
p671
tp672
a(Vto
p673
Vaux
p674
tp675
a(Vobserve
p676
g18
tp677
a(Vfind
p678
Vccomp
p679
tp680
aa(lp681
(Vto
p682
Vaux
p683
tp684
a(Vobserve
p685
g18
tp686
a(Vconductivity
p687
Vdobj
p688
tp689
a(Vhave
p690
Vadvcl
p691
tp692
aa(lp693
(Vinvolve
p694
Vroot
p695
tp696
a(Vsource
p697
Vnsubj
p698
tp699
a(Vobserve
p700
g18
tp701
a(Vdo
p702
Vccomp
p703
tp704
aa(lp705
(Vfig
p706
Vroot
p707
tp708
a(Vspectrum
p709
Vprep_in
p710
tp711
a(Vwe
p712
Vnsubj
p713
tp714
a(Vobserve
p715
g18
tp716
a(Vset
p717
Vdobj
p718
tp719
aa(lp720
(Vcontain
p721
Vccomp
p722
tp723
a(Vthat
p724
Vmark
p725
tp726
a(Vstate
p727
Vnsubj
p728
tp729
a(Vshould
p730
Vaux
p731
tp732
a(Vobserve
p733
g18
tp734
a(Vconduct
p735
Vprep_in
p736
tp737
a(Vgrounds
p738
Vprep_on
p739
tp740
aa(lp741
(Vnothing
p742
Vroot
p743
tp744
a(Vpoint
p745
Vprep_beyond
p746
tp747
a(Vhe
p748
Vnsubj
p749
tp750
a(Vwould
p751
Vaux
p752
tp753
a(Vobserve
p754
g18
tp755
a(Vsomething
p756
Vdobj
p757
tp758
a(Vdecrease
p759
Vparataxis
p760
tp761
aa(lp762
(Vit
p763
Vxsubj
p764
tp765
a(Vpossible
p766
Vxcomp
p767
tp768
a(Vto
p769
Vaux
p770
tp771
a(Vobserve
p772
g18
tp773
a(Vshift
p774
Vdobj
p775
tp776
a(Vexpect
p777
Vprepc_within
p778
tp779
aa(lp780
(Vit
p781
Vnsubj
p782
tp783
a(Vcurious
p784
Vconj_and
p785
tp786
a(Vobserve
p787
g18
tp788
a(Vshaft
p789
Vdobj
p790
tp791
a(Vpour
p792
Vprepc_down
p793
tp794
aa(lp795
(Vmeet
p796
Vxcomp
p797
tp798
a(Vto
p799
Vaux
p800
tp801
a(Vobserve
p802
g18
tp803
a(Vrite
p804
Vdobj
p805
tp806
aa(lp807
(Vtry
p808
Vadvcl
p809
tp810
a(Vwhere
p811
Vadvmod
p812
tp813
a(VI
p814
Vnsubj
p815
tp816
a(Vcould
p817
Vaux
p818
tp819
a(Vobserve
p820
g18
tp821
a(Vnoticeable
p822
Vprepc_without
p823
tp824
aa(lp825
(Vsomething
p826
Vdobj
p827
tp828
a(g826
Vrcmod
p829
tp830
a(Vwe
p831
Vnsubj
p832
tp833
a(Vcan
p834
Vaux
p835
tp836
a(Vobserve
p837
g18
tp838
a(Vdirectly
p839
Vadvmod
p840
tp841
aa(lp842
(Vit
p843
Vxsubj
p844
tp845
a(Vunwise
p846
Vxcomp
p847
tp848
a(Vto
p849
Vaux
p850
tp851
a(Vobserve
p852
g18
tp853
a(Velection
p854
Vdobj
p855
tp856
a(Vonly
p857
Vadvmod
p858
tp859
a(VKorea
p860
Vprep_in
p861
tp862
aa(lp863
(Vwe
p864
Vxsubj
p865
tp866
a(Vable
p867
Vxcomp
p868
tp869
a(Vto
p870
Vaux
p871
tp872
a(Vobserve
p873
g18
tp874
a(Vbehavior
p875
Vdobj
p876
tp877
aa(lp878
(Vendeavor
p879
Vinfmod
p880
tp881
a(Vto
p882
Vaux
p883
tp884
a(Vobserve
p885
g18
tp886
a(Vsubject
p887
Vdobj
p888
tp889
a(Vwild
p890
Vprep_in
p891
tp892
aa(lp893
(Vadministration
p894
Vxsubj
p895
tp896
a(Vcontinue
p897
Vxcomp
p898
tp899
a(Vto
p900
Vaux
p901
tp902
a(Vobserve
p903
g18
tp904
a(VConstitution
p905
Vdobj
p906
tp907
aa(lp908
(Vcomplaint
p909
Vxsubj
p910
tp911
a(Varise
p912
Vxcomp
p913
tp914
a(Vto
p915
Vaux
p916
tp917
a(Vobserve
p918
g18
tp919
a(Vprecaution
p920
Vdobj
p921
tp922
aa(lp923
(Vpace
p924
Vinfmod
p925
tp926
a(Vto
p927
Vaux
p928
tp929
a(Vobserve
p930
g18
tp931
a(Vgo
p932
Vadvcl
p933
tp934
a(Vfollow
p935
Vadvcl
p936
tp937
aa(lp938
(VThatcher
p939
Vxsubj
p940
tp941
a(Vconstrain
p942
Vxcomp
p943
tp944
a(Vto
p945
Vaux
p946
tp947
a(Vobserve
p948
g18
tp949
a(V1982
p950
Vprep_in
p951
tp952
a(Vsafe
p953
Vccomp
p954
tp955
aa(lp956
(Vit
p957
Vxsubj
p958
tp959
a(Veasy
p960
Vxcomp
p961
tp962
a(Vto
p963
Vaux
p964
tp965
a(Vobserve
p966
g18
tp967
a(Vstand
p968
Vadvcl
p969
tp970
a(Vgenerally
p971
Vadvmod
p972
tp973
a(g971
Vconj_or
p974
tp975
a(Vstick
p976
Vconj_or
p977
tp978
aa(lp979
(Vperhaps
p980
Vdep
p981
tp982
a(Vall
p983
Vnsubj
p984
tp985
a(Vobserve
p986
g18
tp987
a(Vextent
p988
Vdobj
p989
tp990
a(Vhandle
p991
Vadvcl
p992
tp993
aa(lp994
(Vregister
p995
Vccomp
p996
tp997
a(Vwhich
p998
Vnsubj
p999
tp1000
a(Vdo
p1001
Vaux
p1002
tp1003
a(Vnot
p1004
Vneg
p1005
tp1006
a(Vadequately
p1007
Vadvmod
p1008
tp1009
a(Vobserve
p1010
g18
tp1011
a(Vrequirement
p1012
Vdobj
p1013
tp1014
aa(lp1015
(VEurope
p1016
Vroot
p1017
tp1018
a(Vsatellite
p1019
Vnsubj
p1020
tp1021
a(Vwill
p1022
Vaux
p1023
tp1024
a(Vobserve
p1025
g18
tp1026
a(Vseasonal
p1027
Vdobj
p1028
tp1029
aa(lp1030
(Vwe
p1031
Vxsubj
p1032
tp1033
a(Vwant
p1034
Vxcomp
p1035
tp1036
a(Vto
p1037
Vaux
p1038
tp1039
a(Vobserve
p1040
g18
tp1041
a(Vhe
p1042
Vdobj
p1043
tp1044
a(Vdirectly
p1045
Vadvmod
p1046
tp1047
aa(lp1048
(Vchild
p1049
Vxsubj
p1050
tp1051
a(Vhave
p1052
Vxcomp
p1053
tp1054
a(Vto
p1055
Vaux
p1056
tp1057
a(Vbehavior
p1058
Vdobj
p1059
tp1060
a(Vsomething
p1061
Vdobj
p1062
tp1063
a(g1061
Vrcmod
p1064
tp1065
a(Vhe
p1066
Vnsubj
p1067
tp1068
a(Vmust
p1069
Vaux
p1070
tp1071
a(Vobserve
p1072
g18
tp1073
a(Vsomething
p1074
Vdobj
p1075
tp1076
a(Vprivate
p1077
Vdobj
p1078
tp1079
aa(lp1080
(Vescarpment
p1081
Vxsubj
p1082
tp1083
a(Vrun
p1084
Vxcomp
p1085
tp1086
a(Vto
p1087
Vaux
p1088
tp1089
a(Vobserve
p1090
g18
tp1091
a(Vtarget
p1092
Vdobj
p1093
tp1094
aa(lp1095
(Vgrateful
p1096
Vadvcl
p1097
tp1098
a(Vif
p1099
Vmark
p1100
tp1101
a(Vyou
p1102
Vnsubj
p1103
tp1104
a(Vwould
p1105
Vaux
p1106
tp1107
a(Vobserve
p1108
g18
tp1109
a(Vcourtesy
p1110
Vdobj
p1111
tp1112
a(Vand
p1113
Vcc
p1114
tp1115
a(Vmake
p1116
Vprepc_before
p1117
tp1118
a(Vconsult
p1119
Vdep
p1120
tp1121
aa(lp1122
(Vshock
p1123
Vroot
p1124
tp1125
a(Vmove
p1126
Vprep_as
p1127
tp1128
a(Vwe
p1129
Vnsubj
p1130
tp1131
a(Vobserve
p1132
g18
tp1133
a(VZapp
p1134
Vdobj
p1135
tp1136
a(Vswallow
p1137
Vconj_and
p1138
tp1139
aa(lp1140
(Vplace
p1141
Vinfmod
p1142
tp1143
a(Vto
p1144
Vaux
p1145
tp1146
a(Vobserve
p1147
g18
tp1148
a(Vphenomenon
p1149
Vdobj
p1150
tp1151
aa(lp1152
(Vh
p1153
Vxsubj
p1154
tp1155
a(Vsufficient
p1156
Vxcomp
p1157
tp1158
a(Vto
p1159
Vaux
p1160
tp1161
a(Vobserve
p1162
g18
tp1163
a(Vdifferentiation
p1164
Vdobj
p1165
tp1166
a(Vmorphogenesis
p1167
Vdobj
p1168
tp1169
a(Vso
p1170
Vdobj
p1171
tp1172
a(Vculture
p1173
Vdobj
p1174
tp1175
aa(lp1176
(Vto
p1177
Vaux
p1178
tp1179
a(Vobserve
p1180
g18
tp1181
a(Veffect
p1182
Vdobj
p1183
tp1184
a(Vnecessary
p1185
Vdep
p1186
tp1187
aa(lp1188
(Vpanel
p1189
Vxsubj
p1190
tp1191
a(Vchoose
p1192
Vxcomp
p1193
tp1194
a(Vto
p1195
Vaux
p1196
tp1197
a(Vobserve
p1198
g18
tp1199
a(Vodour
p1200
Vdobj
p1201
tp1202
aa(lp1203
(Vyear
p1204
Vroot
p1205
tp1206
a(Vas
p1207
Vprep
p1208
tp1209
a(Vwe
p1210
Vnsubj
p1211
tp1212
a(Vobserve
p1213
g18
tp1214
a(Vpattern
p1215
Vdobj
p1216
tp1217
a(Vstudy
p1218
Vprep_in
p1219
tp1220
aa(lp1221
(Vtake
p1222
Vconj_and
p1223
tp1224
a(Vobserve
p1225
g18
tp1226
a(Vbenefit
p1227
Vdobj
p1228
tp1229
a(Vthose
p1230
Vdobj
p1231
tp1232
aa(lp1233
(Vinclude
p1234
Vxcomp
p1235
tp1236
a(Vinstruction
p1237
Vnsubj
p1238
tp1239
a(Vto
p1240
Vaux
p1241
tp1242
a(Vobserve
p1243
g18
tp1244
a(Vsource
p1245
Vdobj
p1246
tp1247
aa(lp1248
(Vfailure
p1249
Vinfmod
p1250
tp1251
a(Vto
p1252
Vaux
p1253
tp1254
a(Vobserve
p1255
g18
tp1256
a(Vrule
p1257
Vdobj
p1258
tp1259
a(Vquality
p1260
Vprep_on
p1261
tp1262
aa(lp1263
(Vvictory
p1264
Vroot
p1265
tp1266
a(Vwe
p1267
Vnsubj
p1268
tp1269
a(Vcan
p1270
Vaux
p1271
tp1272
a(Vobserve
p1273
g18
tp1274
a(Vhappy
p1275
Vccomp
p1276
tp1277
aa(lp1278
(Vdifference
p1279
Vrcmod
p1280
tp1281
a(VI
p1282
Vnsubj
p1283
tp1284
a(Vobserve
p1285
g18
tp1286
a(Vbe
p1287
Vconj_and
p1288
tp1289
aa(lp1290
(Vletter
p1291
Vxsubj
p1292
tp1293
a(Vsymbol
p1294
Vxsubj
p1295
tp1296
a(Vpossible
p1297
Vxcomp
p1298
tp1299
a(Vto
p1300
Vaux
p1301
tp1302
a(Vobserve
p1303
g18
tp1304
a(Vcome
p1305
Vccomp
p1306
tp1307
aa(lp1308
(Vbe
p1309
Vccomp
p1310
tp1311
a(Vthat
p1312
Vmark
p1313
tp1314
a(Vwe
p1315
Vnsubj
p1316
tp1317
a(Vobserve
p1318
g18
tp1319
aa(lp1320
(Vform
p1321
Vxsubj
p1322
tp1323
a(Vfail
p1324
Vxcomp
p1325
tp1326
a(Vto
p1327
Vaux
p1328
tp1329
a(Vobserve
p1330
g18
tp1331
a(Vrule
p1332
Vdobj
p1333
tp1334
aa(lp1335
(Vask
p1336
Vxcomp
p1337
tp1338
a(Vto
p1339
Vaux
p1340
tp1341
a(Vobserve
p1342
g18
tp1343
a(Vsilence
p1344
Vdobj
p1345
tp1346
a(Vmemory
p1347
Vprep_in
p1348
tp1349
aa(lp1350
(Vshow
p1351
Vparataxis
p1352
tp1353
a(Vhere
p1354
Vadvmod
p1355
tp1356
a(Vwe
p1357
Vnsubj
p1358
tp1359
a(Vobserve
p1360
g18
tp1361
a(Vdifferent
p1362
Vccomp
p1363
tp1364
aa(lp1365
(Vbe
p1366
Vccomp
p1367
tp1368
a(Vthat
p1369
Vmark
p1370
tp1371
a(Vwe
p1372
Vnsubj
p1373
tp1374
a(Vtoday
p1375
Vtmod
p1376
tp1377
a(Vobserve
p1378
g18
tp1379
a(Vbe
p1380
Vxcomp
p1381
tp1382
a(Vrecede
p1383
Vconj_and
p1384
tp1385
aa(lp1386
(Vimagine
p1387
Vccomp
p1388
tp1389
a(Vthat
p1390
Vmark
p1391
tp1392
a(Vwe
p1393
Vnsubj
p1394
tp1395
a(Vcould
p1396
Vaux
p1397
tp1398
a(Vdirectly
p1399
Vadvmod
p1400
tp1401
a(Vobserve
p1402
g18
tp1403
a(Vperson
p1404
Vdobj
p1405
tp1406
a(Vform
p1407
Vconj_or
p1408
tp1409
aa(lp1410
(Vfunction
p1411
Vdep
p1412
tp1413
a(Vstudent
p1414
Vnsubj
p1415
tp1416
a(Vnormally
p1417
Vadvmod
p1418
tp1419
a(Vobserve
p1420
g18
tp1421
a(Vanimal
p1422
Vprep_in
p1423
tp1424
aa(lp1425
(Vsomething
p1426
Vinfmod
p1427
tp1428
a(Vto
p1429
Vaux
p1430
tp1431
a(Vobserve
p1432
g18
tp1433
aa(lp1434
(Vhappy
p1435
Vxcomp
p1436
tp1437
a(Vto
p1438
Vaux
p1439
tp1440
a(Vobserve
p1441
g18
tp1442
aa(lp1443
(Vopportunity
p1444
Vinfmod
p1445
tp1446
a(Vto
p1447
Vaux
p1448
tp1449
a(Vobserve
p1450
g18
tp1451
a(Vinvolvement
p1452
Vdobj
p1453
tp1454
aa(lp1455
(Vform
p1456
Vprep_in
p1457
tp1458
a(g1456
Vrcmod
p1459
tp1460
a(Vwe
p1461
Vnsubj
p1462
tp1463
a(Vobserve
p1464
g18
tp1465
a(Vmathematics
p1466
Vdobj
p1467
tp1468
aa(lp1469
(Ve
p1470
Vroot
p1471
tp1472
a(Vbe
p1473
Vccomp
p1474
tp1475
a(Vobserve
p1476
g18
tp1477
a(Vembryo
p1478
Vdobj
p1479
tp1480
a(Vculture
p1481
Vprep_in
p1482
tp1483
a(Vinterval
p1484
Vnsubj
p1485
tp1486
aa(lp1487
(Vonce
p1488
Vroot
p1489
tp1490
a(Vnote
p1491
Vadvcl
p1492
tp1493
a(Vwe
p1494
Vnsubj
p1495
tp1496
a(Vshould
p1497
Vaux
p1498
tp1499
a(Valso
p1500
Vadvmod
p1501
tp1502
a(Vobserve
p1503
g18
tp1504
a(Vend
p1505
Vccomp
p1506
tp1507
a(Vcharacter
p1508
Vccomp
p1509
tp1510
aa(lp1511
(V2
p1512
Vdep
p1513
tp1514
a(Vto
p1515
Vaux
p1516
tp1517
a(Vobserve
p1518
g18
tp1519
a(Vperform
p1520
Vconj_and
p1521
tp1522
a(Vobligation
p1523
Vdobj
p1524
tp1525
aa(lp1526
(Vchild
p1527
Vxsubj
p1528
tp1529
a(Vfail
p1530
Vxcomp
p1531
tp1532
a(Vto
p1533
Vaux
p1534
tp1535
a(Vobserve
p1536
g18
tp1537
a(Vdistinction
p1538
Vdobj
p1539
tp1540
aa(lp1541
(Vown
p1542
Vroot
p1543
tp1544
a(Vresult
p1545
Vprep_as
p1546
tp1547
a(Vwe
p1548
Vnsubj
p1549
tp1550
a(Vcan
p1551
Vaux
p1552
tp1553
a(Vobserve
p1554
g18
tp1555
a(Vemergence
p1556
Vdobj
p1557
tp1558
aa(lp1559
(Vable
p1560
Vxcomp
p1561
tp1562
a(Vto
p1563
Vaux
p1564
tp1565
a(Vobserve
p1566
g18
tp1567
a(VGirl
p1568
Vdobj
p1569
tp1570
aa(lp1571
(Vmember
p1572
Vnsubj
p1573
tp1574
a(Vgain
p1575
Vconj_and
p1576
tp1577
a(Vcould
p1578
Vaux
p1579
tp1580
a(Vnot
p1581
Vneg
p1582
tp1583
a(Vobserve
p1584
g18
tp1585
a(Vnature
p1586
Vdobj
p1587
tp1588
a(Vthere
p1589
Vadvmod
p1590
tp1591
aa(lp1592
(Vduty
p1593
Vinfmod
p1594
tp1595
a(Vto
p1596
Vaux
p1597
tp1598
a(Vobserve
p1599
g18
tp1600
a(Vdecree
p1601
Vdobj
p1602
tp1603
aa(lp1604
(Vsort
p1605
Vroot
p1606
tp1607
a(Vother
p1608
Vnsubj
p1609
tp1610
a(Vobserve
p1611
g18
tp1612
a(Vstart
p1613
Vccomp
p1614
tp1615
aa(lp1616
(Vhe
p1617
Vxsubj
p1618
tp1619
a(Vamuse
p1620
Vxcomp
p1621
tp1622
a(Vto
p1623
Vaux
p1624
tp1625
a(Vobserve
p1626
g18
tp1627
a(Vforce
p1628
Vccomp
p1629
tp1630
aa(lp1631
(Vexpect
p1632
Vccomp
p1633
tp1634
a(Vthat
p1635
Vmark
p1636
tp1637
a(VI
p1638
Vnsubj
p1639
tp1640
a(Vwill
p1641
Vaux
p1642
tp1643
a(Vobserve
p1644
g18
tp1645
a(Vconfidentiality
p1646
Vdobj
p1647
tp1648
a(Vconcern
p1649
Vadvcl
p1650
tp1651
aa(lp1652
(Vhelp
p1653
Vxcomp
p1654
tp1655
a(Vwe
p1656
Vnsubj
p1657
tp1658
a(Vto
p1659
Vaux
p1660
tp1661
a(Vobserve
p1662
g18
tp1663
a(Vmovement
p1664
Vdobj
p1665
tp1666
a(Vtake
p1667
Vxcomp
p1668
tp1669
aa(lp1670
(Vopportunity
p1671
Vinfmod
p1672
tp1673
a(Vto
p1674
Vaux
p1675
tp1676
a(Vobserve
p1677
g18
tp1678
a(Vhabit
p1679
Vdobj
p1680
tp1681
aa(lp1682
(Vhe
p1683
Vxsubj
p1684
tp1685
a(Vhappen
p1686
Vxcomp
p1687
tp1688
a(Vto
p1689
Vaux
p1690
tp1691
a(Vobserve
p1692
g18
tp1693
a(VItaly
p1694
Vprep_in
p1695
tp1696
aa(lp1697
(Vfreedom
p1698
Vinfmod
p1699
tp1700
a(Vsit
p1701
Vconj_and
p1702
tp1703
a(Vobserve
p1704
g18
tp1705
aa(lp1706
(Vdraw
p1707
Vadvcl
p1708
tp1709
a(Vbecause
p1710
Vmark
p1711
tp1712
a(Vdraw
p1713
Vdep
p1714
tp1715
a(Vhe
p1716
Vnsubj
p1717
tp1718
a(Vmust
p1719
Vaux
p1720
tp1721
a(Vobserve
p1722
g18
tp1723
a(Vit
p1724
Vdobj
p1725
tp1726
a(Vcarefully
p1727
Vadvmod
p1728
tp1729
a(Vimplant
p1730
Vconj_and
p1731
tp1732
aa(lp1733
(Vcase
p1734
Vroot
p1735
tp1736
a(Vpass
p1737
Vprepc_in
p1738
tp1739
a(VI
p1740
Vnsubj
p1741
tp1742
a(Vobserve
p1743
g18
tp1744
a(Vgive
p1745
Vccomp
p1746
tp1747
aa(lp1748
(Vable
p1749
Vconj_and
p1750
tp1751
a(Vobserve
p1752
g18
tp1753
a(Veffect
p1754
Vdobj
p1755
tp1756
aa(lp1757
(Vnecessary
p1758
Vdep
p1759
tp1760
a(Vretain
p1761
Vconj_or
p1762
tp1763
a(Vto
p1764
Vaux
p1765
tp1766
a(Vobserve
p1767
g18
tp1768
a(Vconstraint
p1769
Vdobj
p1770
tp1771
aa(lp1772
(Vgroup
p1773
Vxsubj
p1774
tp1775
a(Vattempt
p1776
Vxcomp
p1777
tp1778
a(Vto
p1779
Vaux
p1780
tp1781
a(Vobserve
p1782
g18
tp1783
a(Vrally
p1784
Vdobj
p1785
tp1786
aa(lp1787
(Vdaily
p1788
Vroot
p1789
tp1790
a(Vcashier
p1791
Vnsubj
p1792
tp1793
a(Vshould
p1794
Vaux
p1795
tp1796
a(Vobserve
p1797
g18
tp1798
a(Vregulation
p1799
Vdobj
p1800
tp1801
a(Vaware
p1802
Vconj_and
p1803
tp1804
aa(lp1805
(Vadvocate
p1806
Vxcomp
p1807
tp1808
a(Vto
p1809
Vaux
p1810
tp1811
a(Vobserve
p1812
g18
tp1813
a(Vperiod
p1814
Vdobj
p1815
tp1816
aa(lp1817
(Vthey
p1818
Vxsubj
p1819
tp1820
a(Vtend
p1821
Vxcomp
p1822
tp1823
a(Vto
p1824
Vaux
p1825
tp1826
a(Vobserve
p1827
g18
tp1828
a(Vthey
p1829
Vdobj
p1830
tp1831
a(Vcontext
p1832
Vprep_in
p1833
tp1834
aa(lp1835
(Vit
p1836
Vxsubj
p1837
tp1838
a(Vreasonable
p1839
Vxcomp
p1840
tp1841
a(Vto
p1842
Vaux
p1843
tp1844
a(Vobserve
p1845
g18
tp1846
a(Vwrite
p1847
Vccomp
p1848
tp1849
aa(lp1850
(Vgoods
p1851
Vroot
p1852
tp1853
a(Vyou
p1854
Vnsubj
p1855
tp1856
a(Vshall
p1857
Vaux
p1858
tp1859
a(Vobserve
p1860
g18
tp1861
a(Vrequirement
p1862
Vdobj
p1863
tp1864
a(Vagreement
p1865
Vdobj
p1866
tp1867
aa(lp1868
(Vprotect
p1869
Vxcomp
p1870
tp1871
a(Vto
p1872
Vaux
p1873
tp1874
a(Vobserve
p1875
g18
tp1876
aa(lp1877
(Vtime
p1878
Vrcmod
p1879
tp1880
a(Vwe
p1881
Vnsubj
p1882
tp1883
a(Vcan
p1884
Vaux
p1885
tp1886
a(Vobserve
p1887
g18
tp1888
a(Vchange
p1889
Vdobj
p1890
tp1891
aa(lp1892
(Vuse
p1893
Vnsubj
p1894
tp1895
a(Vbear
p1896
Vconj_and
p1897
tp1898
a(Vobserve
p1899
g18
tp1900
a(Vrequirement
p1901
Vdobj
p1902
tp1903
aa(lp1904
(Vsecond
p1905
Vroot
p1906
tp1907
a(Vastronomer
p1908
Vnsubj
p1909
tp1910
a(Vcan
p1911
Vaux
p1912
tp1913
a(Vobserve
p1914
g18
tp1915
a(Vthis
p1916
Vdobj
p1917
tp1918
aa(lp1919
(Vpromise
p1920
Vinfmod
p1921
tp1922
a(Vto
p1923
Vaux
p1924
tp1925
a(Vobserve
p1926
g18
tp1927
a(Vneutrality
p1928
Vdobj
p1929
tp1930
aa(lp1931
(VOrton
p1932
Vxsubj
p1933
tp1934
a(Vtake
p1935
Vxcomp
p1936
tp1937
a(Vto
p1938
Vaux
p1939
tp1940
a(Vobserve
p1941
g18
tp1942
a(Vmake
p1943
Vccomp
p1944
tp1945
aa(lp1946
(Vprocess
p1947
Vrcmod
p1948
tp1949
a(Vlife
p1950
Vprep_throughout
p1951
tp1952
a(Vobserve
p1953
g18
tp1954
a(Vtime
p1955
Vdobj
p1956
tp1957
aa(lp1958
(Vattempt
p1959
Vccomp
p1960
tp1961
a(Vmodify
p1962
Vconj_and
p1963
tp1964
a(Vto
p1965
Vaux
p1966
tp1967
a(Vobserve
p1968
g18
tp1969
a(Vresult
p1970
Vdobj
p1971
tp1972
aa(lp1973
(Vlaw
p1974
Vdobj
p1975
tp1976
a(g1974
Vrcmod
p1977
tp1978
a(Vpass
p1979
Vadvcl
p1980
tp1981
a(Vcitizenry
p1982
Vnsubj
p1983
tp1984
a(Vwould
p1985
Vaux
p1986
tp1987
a(Vnot
p1988
Vneg
p1989
tp1990
a(Vobserve
p1991
g18
tp1992
a(Veven
p1993
Vadvmod
p1994
tp1995
a(g1993
Vconj_or
p1996
tp1997
a(Venforce
p1998
Vconj_or
p1999
tp2000
aa(lp2001
(Vneed
p2002
Vroot
p2003
tp2004
a(Vhowever
p2005
Vadvmod
p2006
tp2007
a(Vkeep
p2008
Vprepc_by
p2009
tp2010
a(VI
p2011
Vnsubj
p2012
tp2013
a(Vcould
p2014
Vaux
p2015
tp2016
a(Vobserve
p2017
g18
tp2018
a(Vbehavior
p2019
Vdobj
p2020
tp2021
a(Vdecide
p2022
Vadvcl
p2023
tp2024
aa(lp2025
(VNature
p2026
Vdep
p2027
tp2028
a(Vas
p2029
Vmark
p2030
tp2031
a(Vwe
p2032
Vnsubj
p2033
tp2034
a(Vobserve
p2035
g18
tp2036
a(Vit
p2037
Vdobj
p2038
tp2039
aa(lp2040
(Vfemale
p2041
Vroot
p2042
tp2043
a(Vexample
p2044
Vprep_for
p2045
tp2046
a(Vnobody
p2047
Vnsubj
p2048
tp2049
a(Vcould
p2050
Vaux
p2051
tp2052
a(Vpossibly
p2053
Vadvmod
p2054
tp2055
a(Vobserve
p2056
g18
tp2057
a(Vmatter
p2058
Vprep_as
p2059
tp2060
a(Vmale
p2061
Vccomp
p2062
tp2063
aa(lp2064
(VI
p2065
Vxsubj
p2066
tp2067
a(Vcome
p2068
Vxcomp
p2069
tp2070
a(Vto
p2071
Vaux
p2072
tp2073
a(Vobserve
p2074
g18
tp2075
a(Vuse
p2076
Vccomp
p2077
tp2078
a(Vsupport
p2079
Vccomp
p2080
tp2081
a(Vexpress
p2082
Vccomp
p2083
tp2084
aa(lp2085
(Vdevelop
p2086
Vadvcl
p2087
tp2088
a(Vwhere
p2089
Vadvmod
p2090
tp2091
a(Vtrainee
p2092
Vnsubj
p2093
tp2094
a(Vcan
p2095
Vaux
p2096
tp2097
a(Vobserve
p2098
g18
tp2099
a(Vcorrect
p2100
Vconj_and
p2101
tp2102
a(Vbehavior
p2103
Vdobj
p2104
tp2105
aa(lp2106
(Vclear
p2107
Vccomp
p2108
tp2109
a(Vthat
p2110
Vmark
p2111
tp2112
a(Vit
p2113
Vnsubj
p2114
tp2115
a(Vwould
p2116
Vaux
p2117
tp2118
a(Vlonger
p2119
Vadvmod
p2120
tp2121
a(Vobserve
p2122
g18
tp2123
a(Vceasefire
p2124
Vdobj
p2125
tp2126
a(Vcollapse
p2127
Vadvcl
p2128
tp2129
aa(lp2130
(VI
p2131
Vxsubj
p2132
tp2133
a(Vready
p2134
Vxcomp
p2135
tp2136
a(Vto
p2137
Vaux
p2138
tp2139
a(Vobserve
p2140
g18
tp2141
a(Vshe
p2142
Vdobj
p2143
tp2144
a(Vagain
p2145
Vadvmod
p2146
tp2147
aa(lp2148
(Vperson
p2149
Vxsubj
p2150
tp2151
a(Vpause
p2152
Vxcomp
p2153
tp2154
a(Vto
p2155
Vaux
p2156
tp2157
a(Vobserve
p2158
g18
tp2159
a(Vplay
p2160
Vccomp
p2161
tp2162
aa(lp2163
(Vwe
p2164
Vxsubj
p2165
tp2166
a(Vbe
p2167
Vxcomp
p2168
tp2169
a(Vto
p2170
Vaux
p2171
tp2172
a(Vobserve
p2173
g18
tp2174
a(Vit
p2175
Vdobj
p2176
tp2177
aa(lp2178
(Vproclaim
p2179
Vparataxis
p2180
tp2181
a(Vneed
p2182
Vconj_but
p2183
tp2184
a(Vone
p2185
Vnsubj
p2186
tp2187
a(Vmust
p2188
Vaux
p2189
tp2190
a(Vfirst
p2191
Vadvmod
p2192
tp2193
a(Vobserve
p2194
g18
tp2195
a(Vdifference
p2196
Vdobj
p2197
tp2198
a(Vdiscover
p2199
Vadvcl
p2200
tp2201
aa(lp2202
(V1
p2203
Vroot
p2204
tp2205
a(Vcomplete
p2206
Vadvcl
p2207
tp2208
a(Vwe
p2209
Vnsubj
p2210
tp2211
a(Vmay
p2212
Vaux
p2213
tp2214
a(Vobserve
p2215
g18
tp2216
a(Vuse
p2217
Vccomp
p2218
tp2219
aa(lp2220
(VV
p2221
Vxsubj
p2222
tp2223
a(Vabsolve
p2224
Vxcomp
p2225
tp2226
a(Vto
p2227
Vaux
p2228
tp2229
a(Vobserve
p2230
g18
tp2231
a(Vconfirmation
p2232
Vdobj
p2233
tp2234
aa(lp2235
(Vstudent
p2236
Vxsubj
p2237
tp2238
a(Vtell
p2239
Vxcomp
p2240
tp2241
a(Vto
p2242
Vaux
p2243
tp2244
a(Vobserve
p2245
g18
tp2246
a(Vfish
p2247
Vdobj
p2248
tp2249
aa(lp2250
(Vcause
p2251
Vxcomp
p2252
tp2253
a(Vyou
p2254
Vnsubj
p2255
tp2256
a(Vto
p2257
Vaux
p2258
tp2259
a(Vobserve
p2260
g18
tp2261
a(Vbe
p2262
Vccomp
p2263
tp2264
aa(lp2265
(Vformer
p2266
Vroot
p2267
tp2268
a(Vi
p2269
Vdep
p2270
tp2271
a(Vwe
p2272
Vnsubj
p2273
tp2274
a(Vcan
p2275
Vaux
p2276
tp2277
a(Vobserve
p2278
g18
tp2279
a(Vexperience
p2280
Vdobj
p2281
tp2282
a(Vhave
p2283
Vccomp
p2284
tp2285
a(Vdo
p2286
Vconj_and
p2287
tp2288
a(Vstudy
p2289
Vconj_and
p2290
tp2291
aa(lp2292
(Vsay
p2293
Vccomp
p2294
tp2295
a(Vit
p2296
Vnsubj
p2297
tp2298
a(V'll
p2299
Vaux
p2300
tp2301
a(Vobserve
p2302
g18
tp2303
a(Vstandard
p2304
Vdobj
p2305
tp2306
aa(lp2307
(VI
p2308
Vxsubj
p2309
tp2310
a(Vwish
p2311
Vxcomp
p2312
tp2313
a(Vto
p2314
Vaux
p2315
tp2316
a(Vobserve
p2317
g18
tp2318
a(Vsee
p2319
Vccomp
p2320
tp2321
aa(lp2322
(Vpossible
p2323
Vxcomp
p2324
tp2325
a(Vlook
p2326
Vconj_and
p2327
tp2328
a(Vobserve
p2329
g18
tp2330
aa(lp2331
(Vit
p2332
Vxsubj
p2333
tp2334
a(Vinteresting
p2335
Vxcomp
p2336
tp2337
a(Vto
p2338
Vaux
p2339
tp2340
a(Vobserve
p2341
g18
tp2342
a(Vgive
p2343
Vccomp
p2344
tp2345
aa(lp2346
(Vopportunity
p2347
Vinfmod
p2348
tp2349
a(Vto
p2350
Vaux
p2351
tp2352
a(Vobserve
p2353
g18
tp2354
a(Vrange
p2355
Vdobj
p2356
tp2357
aa(lp2358
(Vwork
p2359
Vroot
p2360
tp2361
a(Vhour
p2362
Vprep_apart_from
p2363
tp2364
a(Vobserve
p2365
g18
tp2366
a(Vcomplete
p2367
Vacomp
p2368
tp2369
a(Vsilence
p2370
Vnsubj
p2371
tp2372
aa(lp2373
(Vcommitment
p2374
Vinfmod
p2375
tp2376
a(Vto
p2377
Vaux
p2378
tp2379
a(Vobserve
p2380
g18
tp2381
a(Vterm
p2382
Vdobj
p2383
tp2384
aa(lp2385
(Vbe
p2386
Vroot
p2387
tp2388
a(Vand
p2389
Vcc
p2390
tp2391
a(Vobserve
p2392
g18
tp2393
a(Vjust
p2394
Vadvmod
p2395
tp2396
a(g2386
Vccomp
p2397
tp2398
aa(lp2399
(Vsomewhere
p2400
Vrcmod
p2401
tp2402
a(Vwhere
p2403
Vadvmod
p2404
tp2405
a(Vyou
p2406
Vnsubj
p2407
tp2408
a(Vcan
p2409
Vaux
p2410
tp2411
a(Veasily
p2412
Vadvmod
p2413
tp2414
a(Vobserve
p2415
g18
tp2416
a(Vcar
p2417
Vdobj
p2418
tp2419
aa(lp2420
(Vit
p2421
Vxsubj
p2422
tp2423
a(Vnecessary
p2424
Vxcomp
p2425
tp2426
a(Vto
p2427
Vaux
p2428
tp2429
a(Vobserve
p2430
g18
tp2431
a(Vdo
p2432
Vccomp
p2433
tp2434
aa(lp2435
(Vall
p2436
Vrcmod
p2437
tp2438
a(Vwe
p2439
Vnsubj
p2440
tp2441
a(Vcan
p2442
Vaux
p2443
tp2444
a(Vobserve
p2445
g18
tp2446
a(Vgather
p2447
Vconj_and
p2448
tp2449
a(Vdatum
p2450
Vdobj
p2451
tp2452
a(Vfrom
p2453
Vprep
p2454
tp2455
aa(lp2456
(Vcare
p2457
Vxcomp
p2458
tp2459
a(Vstep
p2460
Vconj_and
p2461
tp2462
a(Vobserve
p2463
g18
tp2464
a(Vyourself
p2465
Vprep_for
p2466
tp2467
aa(lp2468
(Vsort
p2469
Vdobj
p2470
tp2471
a(g2469
Vrcmod
p2472
tp2473
a(Vlover
p2474
Vnsubj
p2475
tp2476
a(Vwould
p2477
Vaux
p2478
tp2479
a(Vobserve
p2480
g18
tp2481
aa(lp2482
(Vpeople
p2483
Vxsubj
p2484
tp2485
a(Vable
p2486
Vxcomp
p2487
tp2488
a(Vto
p2489
Vaux
p2490
tp2491
a(Vobserve
p2492
g18
tp2493
a(Vbe
p2494
Vccomp
p2495
tp2496
aa(lp2497
(Vdecide
p2498
Vccomp
p2499
tp2500
a(Vto
p2501
Vaux
p2502
tp2503
a(Vobserve
p2504
g18
tp2505
a(V1990
p2506
Vdobj
p2507
tp2508
a(Vdecade
p2509
Vprep_as
p2510
tp2511
a(Vincorporate
p2512
Vconj_and
p2513
tp2514
aa(lp2515
(Vlet
p2516
Vccomp
p2517
tp2518
a(VI
p2519
Vnsubj
p2520
tp2521
a(Vobserve
p2522
g18
tp2523
a(Vyou
p2524
Vdobj
p2525
tp2526
aa(lp2527
(Vthink
p2528
Vccomp
p2529
tp2530
a(Vyou
p2531
Vnsubj
p2532
tp2533
a(Vsit
p2534
Vconj_and
p2535
tp2536
a(Vobserve
p2537
g18
tp2538
aa(lp2539
(Vbe
p2540
Vxcomp
p2541
tp2542
a(Vto
p2543
Vaux
p2544
tp2545
a(Vobserve
p2546
g18
tp2547
a(Vlist
p2548
Vconj_and
p2549
tp2550
a(Vproperty
p2551
Vdobj
p2552
tp2553
aa(lp2554
(Vresident
p2555
Vxsubj
p2556
tp2557
a(Vget
p2558
Vxcomp
p2559
tp2560
a(Vto
p2561
Vaux
p2562
tp2563
a(Vobserve
p2564
g18
tp2565
a(Vblink
p2566
Vxcomp
p2567
tp2568
a(Vmannerism
p2569
Vxcomp
p2570
tp2571
aa(lp2572
(Vperson
p2573
Vxsubj
p2574
tp2575
a(Vable
p2576
Vxcomp
p2577
tp2578
a(Vto
p2579
Vaux
p2580
tp2581
a(Vobserve
p2582
g18
tp2583
a(Vrelation
p2584
Vdobj
p2585
tp2586
aa(lp2587
(Vobjectively
p2588
Vdep
p2589
tp2590
a(Vobserve
p2591
g18
tp2592
a(Vdo
p2593
Vccomp
p2594
tp2595
aa(lp2596
(Vtest
p2597
Vconj_and
p2598
tp2599
a(Vsecondly
p2600
Vadvmod
p2601
tp2602
a(Vto
p2603
Vaux
p2604
tp2605
a(Vobserve
p2606
g18
tp2607
a(Vsystem
p2608
Vdobj
p2609
tp2610
a(Vaction
p2611
Vprep_in
p2612
tp2613
aa(lp2614
(Vbe
p2615
Vxcomp
p2616
tp2617
a(Vto
p2618
Vaux
p2619
tp2620
a(Vobserve
p2621
g18
tp2622
a(Vstudy
p2623
Vccomp
p2624
tp2625
aa(lp2626
(Vwe
p2627
Vnsubj
p2628
tp2629
a(Vlook
p2630
Vconj_and
p2631
tp2632
a(Vobserve
p2633
g18
tp2634
a(Vuse
p2635
Vccomp
p2636
tp2637
aa(lp2638
(Vdynamism
p2639
Vroot
p2640
tp2641
a(Vwe
p2642
Vnsubj
p2643
tp2644
a(Vobserve
p2645
g18
tp2646
a(Vlanguage
p2647
Vdobj
p2648
tp2649
a(Vdistance
p2650
Vprep_at
p2651
tp2652
a(Vsense
p2653
Vpartmod
p2654
tp2655
aa(lp2656
(Vit
p2657
Vxsubj
p2658
tp2659
a(Vbe
p2660
Vxcomp
p2661
tp2662
a(Vto
p2663
Vaux
p2664
tp2665
a(Vobserve
p2666
g18
tp2667
a(Vway
p2668
Vdobj
p2669
tp2670
aa(lp2671
(V11
p2672
Vxsubj
p2673
tp2674
a(Vcall
p2675
Vxcomp
p2676
tp2677
a(Vto
p2678
Vaux
p2679
tp2680
a(Vobserve
p2681
g18
tp2682
a(Vframework
p2683
Vdobj
p2684
tp2685
a(Vsettlement
p2686
Vprep_for
p2687
tp2688
a(Vagree
p2689
Vadvcl
p2690
tp2691
aa(lp2692
(Vsadness
p2693
Vxsubj
p2694
tp2695
a(Vbe
p2696
Vxcomp
p2697
tp2698
a(Vto
p2699
Vaux
p2700
tp2701
a(Vobserve
p2702
g18
tp2703
a(Vdevastation
p2704
Vdobj
p2705
tp2706
aa(lp2707
(Vif
p2708
Vmark
p2709
tp2710
a(Vthey
p2711
Vnsubj
p2712
tp2713
a(Vdo
p2714
Vaux
p2715
tp2716
a(Vnot
p2717
Vneg
p2718
tp2719
a(Vobserve
p2720
g18
tp2721
a(Vvow
p2722
Vdobj
p2723
tp2724
a(Vsplit
p2725
Vadvcl
p2726
tp2727
aa(lp2728
(Vdo
p2729
Vccomp
p2730
tp2731
a(Vsee
p2732
Vconj_but
p2733
tp2734
a(Vyou
p2735
Vnsubj
p2736
tp2737
a(Vcan
p2738
Vaux
p2739
tp2740
a(Vobserve
p2741
g18
tp2742
a(Veffect
p2743
Vdobj
p2744
tp2745
aa(lp2746
(Vthing
p2747
Vinfmod
p2748
tp2749
a(Vto
p2750
Vaux
p2751
tp2752
a(Vobserve
p2753
g18
tp2754
a(Vdefect
p2755
Vdobj
p2756
tp2757
aa(lp2758
(Vwe
p2759
Vnsubj
p2760
tp2761
a(Vcome
p2762
Vconj_and
p2763
tp2764
a(Vobserve
p2765
g18
tp2766
a(Vbehavior
p2767
Vdobj
p2768
tp2769
a(Vlove
p2770
Vadvcl
p2771
tp2772
aa(lp2773
(Vthere
p2774
Vinfmod
p2775
tp2776
a(Vto
p2777
Vaux
p2778
tp2779
a(Vobserve
p2780
g18
tp2781
a(Vwish
p2782
Vccomp
p2783
tp2784
aa(lp2785
(Vplenty
p2786
Vinfmod
p2787
tp2788
a(Vto
p2789
Vaux
p2790
tp2791
a(Vobserve
p2792
g18
tp2793
a(Vinterested
p2794
Vccomp
p2795
tp2796
aa(lp2797
(Vlady
p2798
Vxsubj
p2799
tp2800
a(Vpermit
p2801
Vxcomp
p2802
tp2803
a(Vto
p2804
Vaux
p2805
tp2806
a(Vobserve
p2807
g18
tp2808
a(Vrite
p2809
Vdobj
p2810
tp2811
aa(lp2812
(Vwho
p2813
Vxsubj
p2814
tp2815
a(Vpop
p2816
Vxcomp
p2817
tp2818
a(Vto
p2819
Vaux
p2820
tp2821
a(Vobserve
p2822
g18
tp2823
a(Vshe
p2824
Vdobj
p2825
tp2826
aa(lp2827
(Vbegin
p2828
Vccomp
p2829
tp2830
a(Vto
p2831
Vaux
p2832
tp2833
a(Vobserve
p2834
g18
tp2835
a(Vteacher
p2836
Vdobj
p2837
tp2838
a(Vwork
p2839
Vprep_at
p2840
tp2841
a(Vlook
p2842
Vconj_and
p2843
tp2844
aa(lp2845
(Vwife
p2846
Vinfmod
p2847
tp2848
a(Vto
p2849
Vaux
p2850
tp2851
a(Vobserve
p2852
g18
tp2853
a(Vperform
p2854
Vconj_and
p2855
tp2856
a(Vterm
p2857
Vdobj
p2858
tp2859
aa(lp2860
(Vannihilation
p2861
Vxsubj
p2862
tp2863
a(Vurge
p2864
Vxcomp
p2865
tp2866
a(Vto
p2867
Vaux
p2868
tp2869
a(Vobserve
p2870
g18
tp2871
a(Vsanction
p2872
Vdobj
p2873
tp2874
aa(lp2875
(VMiles
p2876
Vxsubj
p2877
tp2878
a(Vvisit
p2879
Vxcomp
p2880
tp2881
a(Vto
p2882
Vaux
p2883
tp2884
a(Vobserve
p2885
g18
tp2886
a(Vexperiment
p2887
Vdobj
p2888
tp2889
a(Vtemperature
p2890
Vprep_on
p2891
tp2892
aa(lp2893
(Vteach
p2894
Vxcomp
p2895
tp2896
a(Vthey
p2897
Vnsubj
p2898
tp2899
a(Vto
p2900
Vaux
p2901
tp2902
a(Vobserve
p2903
g18
tp2904
a(Vcommand
p2905
Vdobj
p2906
tp2907
aa(lp2908
(Vthey
p2909
Vxsubj
p2910
tp2911
a(Vsuppose
p2912
Vxcomp
p2913
tp2914
a(Vto
p2915
Vaux
p2916
tp2917
a(Vobserve
p2918
g18
tp2919
aa(lp2920
(Vpattern
p2921
Vxsubj
p2922
tp2923
a(Vbe
p2924
Vxcomp
p2925
tp2926
a(Vto
p2927
Vaux
p2928
tp2929
a(Vobserve
p2930
g18
tp2931
a(Vamount
p2932
Vxcomp
p2933
tp2934
aa(lp2935
(Vwe
p2936
Vxsubj
p2937
tp2938
a(Vneed
p2939
Vxcomp
p2940
tp2941
a(Vto
p2942
Vaux
p2943
tp2944
a(Vobserve
p2945
g18
tp2946
a(Vreflect
p2947
Vconj_and
p2948
tp2949
a(Vupon
p2950
Vprep
p2951
tp2952
aa(lp2953
(VCharles
p2954
Vxsubj
p2955
tp2956
a(Vlie
p2957
Vxcomp
p2958
tp2959
a(Vto
p2960
Vaux
p2961
tp2962
a(Vobserve
p2963
g18
tp2964
a(Vask
p2965
Vconj_and
p2966
tp2967
a(Vquestion
p2968
Vdobj
p2969
tp2970
a(Vit
p2971
Vprep_about
p2972
tp2973
aa(lp2974
(Vtongue
p2975
Vinfmod
p2976
tp2977
a(Vto
p2978
Vaux
p2979
tp2980
a(Vobserve
p2981
g18
tp2982
a(Vtrustworthy
p2983
Vdep
p2984
tp2985
a(Vrealize
p2986
Vdep
p2987
tp2988
aa(lp2989
(Vbeing
p2990
Vinfmod
p2991
tp2992
a(Vto
p2993
Vaux
p2994
tp2995
a(Vobserve
p2996
g18
tp2997
a(Vnumber
p2998
Vdobj
p2999
tp3000
aa(lp3001
(Vthey
p3002
Vxsubj
p3003
tp3004
a(Vfail
p3005
Vxcomp
p3006
tp3007
a(Vto
p3008
Vaux
p3009
tp3010
a(Vobserve
p3011
g18
tp3012
a(Vright
p3013
Vdobj
p3014
tp3015
a(Vleave
p3016
Vxcomp
p3017
tp3018
aa(lp3019
(Vpoint
p3020
Vxsubj
p3021
tp3022
a(Vbe
p3023
Vxcomp
p3024
tp3025
a(Vto
p3026
Vaux
p3027
tp3028
a(Vobserve
p3029
g18
tp3030
a(Vdecision
p3031
Vdobj
p3032
tp3033
a(Vgame
p3034
Vprep_at
p3035
tp3036
a(Videntify
p3037
Vxcomp
p3038
tp3039
aa(lp3040
(Vpart
p3041
Vxsubj
p3042
tp3043
a(Vamuse
p3044
Vxcomp
p3045
tp3046
a(Vto
p3047
Vaux
p3048
tp3049
a(Vobserve
p3050
g18
tp3051
a(Vbe
p3052
Vccomp
p3053
tp3054
aa(lp3055
(Vfirm
p3056
Vroot
p3057
tp3058
a(Vwe
p3059
Vnsubj
p3060
tp3061
a(Vtherefore
p3062
Vadvmod
p3063
tp3064
a(Vobserve
p3065
g18
tp3066
a(Vmaximize
p3067
Vccomp
p3068
tp3069
aa(lp3070
(Vforce
p3071
Vxcomp
p3072
tp3073
a(Vto
p3074
Vaux
p3075
tp3076
a(Vobserve
p3077
g18
tp3078
a(Vworld
p3079
Vdobj
p3080
tp3081
a(Voccur
p3082
Vadvcl
p3083
tp3084
aa(lp3085
(Vput
p3086
Vdep
p3087
tp3088
a(VMassingham
p3089
Vnsubj
p3090
tp3091
a(Vhappen
p3092
Vconj_and
p3093
tp3094
a(Vobserve
p3095
g18
tp3096
a(Vpark
p3097
Vccomp
p3098
tp3099
aa(lp3100
(Vline
p3101
Vxsubj
p3102
tp3103
a(Vcross
p3104
Vxcomp
p3105
tp3106
a(Vto
p3107
Vaux
p3108
tp3109
a(Vobserve
p3110
g18
tp3111
a(Vexplore
p3112
Vconj_and
p3113
tp3114
aa(lp3115
(Vwe
p3116
Vrcmod
p3117
tp3118
a(Vwould
p3119
Vaux
p3120
tp3121
a(Vnever
p3122
Vneg
p3123
tp3124
a(Vobserve
p3125
g18
tp3126
a(Vwar
p3127
Vdobj
p3128
tp3129
aa(lp3130
(Vhelpful
p3131
Vxcomp
p3132
tp3133
a(Vto
p3134
Vaux
p3135
tp3136
a(Vobserve
p3137
g18
tp3138
a(Vcounter
p3139
Vconj_and
p3140
tp3141
a(Vblock
p3142
Vdobj
p3143
tp3144
a(Vrecovery
p3145
Vprep_to
p3146
tp3147
aa(lp3148
(Vopportunity
p3149
Vinfmod
p3150
tp3151
a(Vto
p3152
Vaux
p3153
tp3154
a(Vobserve
p3155
g18
tp3156
a(Venvy
p3157
Vdobj
p3158
tp3159
a(Vknit
p3160
Vprepc_because
p3161
tp3162
aa(lp3163
(Vbe
p3164
Vccomp
p3165
tp3166
a(Vthat
p3167
Vmark
p3168
tp3169
a(Vone
p3170
Vnsubj
p3171
tp3172
a(Vcan
p3173
Vaux
p3174
tp3175
a(Vobserve
p3176
g18
tp3177
a(Vcall
p3178
Vccomp
p3179
tp3180
aa(lp3181
(Vbehavior
p3182
Vroot
p3183
tp3184
a(Vwatch
p3185
Vadvcl
p3186
tp3187
a(Vyou
p3188
Vnsubj
p3189
tp3190
a(Vobserve
p3191
g18
tp3192
a(Vchange
p3193
Vccomp
p3194
tp3195
aa(lp3196
(VGot
p3197
Vxcomp
p3198
tp3199
a(Vto
p3200
Vaux
p3201
tp3202
a(Vobserve
p3203
g18
tp3204
a(Varp
p3205
Vdobj
p3206
tp3207
aa(lp3208
(Vhave
p3209
Vroot
p3210
tp3211
a(Vwe
p3212
Vnsubj
p3213
tp3214
a(Vfirst
p3215
Vadvmod
p3216
tp3217
a(Vobserve
p3218
g18
tp3219
a(Voptimal
p3220
Vccomp
p3221
tp3222
aa(lp3223
(Vstraightforward
p3224
Vroot
p3225
tp3226
a(Vmore
p3227
Vdep
p3228
tp3229
a(Vthat
p3230
Vdep
p3231
tp3232
a(Vscientist
p3233
Vnsubj
p3234
tp3235
a(Vobserve
p3236
g18
tp3237
a(Vintricate
p3238
Vxcomp
p3239
tp3240
a(Vcompare
p3241
Vparataxis
p3242
tp3243
aa(lp3244
(Vtechnique
p3245
Vroot
p3246
tp3247
a(Vway
p3248
Vprep_in
p3249
tp3250
a(Vtherapist
p3251
Vnsubj
p3252
tp3253
a(Vcan
p3254
Vaux
p3255
tp3256
a(Vobserve
p3257
g18
tp3258
a(Vexplain
p3259
Vconj_and
p3260
tp3261
aa(lp3262
(Vtendency
p3263
Vxsubj
p3264
tp3265
a(Vbe
p3266
Vxcomp
p3267
tp3268
a(Vto
p3269
Vaux
p3270
tp3271
a(Vobserve
p3272
g18
tp3273
a(Vconvention
p3274
Vdobj
p3275
tp3276
aa(lp3277
(Vhe
p3278
Vxsubj
p3279
tp3280
a(Vexpect
p3281
Vxcomp
p3282
tp3283
a(Vto
p3284
Vaux
p3285
tp3286
a(Vobserve
p3287
g18
tp3288
a(Vstandard
p3289
Vdobj
p3290
tp3291
a(Vfor
p3292
Vdep
p3293
tp3294
aa(lp3295
(Vwe
p3296
Vxsubj
p3297
tp3298
a(Vexpect
p3299
Vxcomp
p3300
tp3301
a(Vto
p3302
Vaux
p3303
tp3304
a(Vobserve
p3305
g18
tp3306
a(Vquantity
p3307
Vdobj
p3308
tp3309
a(Vborder
p3310
Vprep_from
p3311
tp3312
a(Vcollide
p3313
Vadvcl
p3314
tp3315
a(Vannihilate
p3316
Vadvcl
p3317
tp3318
a(Vgive
p3319
Vadvcl
p3320
tp3321
aa(lp3322
(Ver
p3323
Vdep
p3324
tp3325
a(Vas
p3326
Vmark
p3327
tp3328
a(VI
p3329
Vnsubj
p3330
tp3331
a(Vobserve
p3332
g18
tp3333
a(Vbe
p3334
Vdep
p3335
tp3336
a(Vsort
p3337
Vdep
p3338
tp3339
aa(lp3340
(VOctober
p3341
Vxsubj
p3342
tp3343
a(Vfail
p3344
Vxcomp
p3345
tp3346
a(Vto
p3347
Vaux
p3348
tp3349
a(Vobserve
p3350
g18
tp3351
a(Vrule
p3352
Vdobj
p3353
tp3354
aa(lp3355
(Vit
p3356
Vxsubj
p3357
tp3358
a(Vinteresting
p3359
Vxcomp
p3360
tp3361
a(Vto
p3362
Vaux
p3363
tp3364
a(Vobserve
p3365
g18
tp3366
a(Vbe
p3367
Vccomp
p3368
tp3369
aa(lp3370
(Vwhen
p3371
Vadvmod
p3372
tp3373
a(Vwe
p3374
Vnsubj
p3375
tp3376
a(Vobserve
p3377
g18
tp3378
a(Vego
p3379
Vdobj
p3380
tp3381
a(Vfind
p3382
Vadvcl
p3383
tp3384
aa(lp3385
(Vit
p3386
Vxsubj
p3387
tp3388
a(Vinteresting
p3389
Vxcomp
p3390
tp3391
a(Vto
p3392
Vaux
p3393
tp3394
a(Vobserve
p3395
g18
tp3396
a(Vhow
p3397
Vadvmod
p3398
tp3399
a(Vusage
p3400
Vdobj
p3401
tp3402
aa(lp3403
(Vintroduce
p3404
Vxcomp
p3405
tp3406
a(Vto
p3407
Vaux
p3408
tp3409
a(Vobserve
p3410
g18
tp3411
aa(lp3412
(Vability
p3413
Vinfmod
p3414
tp3415
a(Vto
p3416
Vaux
p3417
tp3418
a(Vobserve
p3419
g18
tp3420
a(Vlocation
p3421
Vprep_in
p3422
tp3423
aa(lp3424
(Vcondition
p3425
Vdobj
p3426
tp3427
a(g3425
Vrcmod
p3428
tp3429
a(Vwe
p3430
Vnsubj
p3431
tp3432
a(Vobserve
p3433
g18
tp3434
a(Vuniverse
p3435
Vprep_in
p3436
tp3437
aa(lp3438
(Vresearcher
p3439
Vxsubj
p3440
tp3441
a(Vhave
p3442
Vxcomp
p3443
tp3444
a(Vto
p3445
Vaux
p3446
tp3447
a(Vobserve
p3448
g18
tp3449
a(Vchimp
p3450
Vdobj
p3451
tp3452
a(Vpair
p3453
Vprep_in
p3454
tp3455
aa(lp3456
(Vfunction
p3457
Vxsubj
p3458
tp3459
a(Vbe
p3460
Vxcomp
p3461
tp3462
a(Vto
p3463
Vaux
p3464
tp3465
a(Vobserve
p3466
g18
tp3467
a(Vcounter
p3468
Vconj_and
p3469
tp3470
a(Vactivity
p3471
Vdobj
p3472
tp3473
aa(lp3474
(Vhe
p3475
Vxsubj
p3476
tp3477
a(Vset
p3478
Vxcomp
p3479
tp3480
a(Vto
p3481
Vaux
p3482
tp3483
a(Vobserve
p3484
g18
tp3485
a(Vworld
p3486
Vdobj
p3487
tp3488
a(Vrecord
p3489
Vconj_and
p3490
tp3491
aa(lp3492
(Vbeing
p3493
Vnsubj
p3494
tp3495
a(g3493
Vrcmod
p3496
tp3497
a(Vcould
p3498
Vaux
p3499
tp3500
a(Vobserve
p3501
g18
tp3502
a(Vstate
p3503
Vdobj
p3504
tp3505
a(Vdisturb
p3506
Vprepc_without
p3507
tp3508
aa(lp3509
(Vit
p3510
Vxsubj
p3511
tp3512
a(Vpossible
p3513
Vxcomp
p3514
tp3515
a(Vto
p3516
Vaux
p3517
tp3518
a(Vobserve
p3519
g18
tp3520
a(Vpattern
p3521
Vdobj
p3522
tp3523
aa(lp3524
(Vbe
p3525
Vadvcl
p3526
tp3527
a(Vfirm
p3528
Vnsubj
p3529
tp3530
a(Vexperience
p3531
Vconj_and
p3532
tp3533
a(Vcan
p3534
Vaux
p3535
tp3536
a(Vobserve
p3537
g18
tp3538
a(Vrelationship
p3539
Vdobj
p3540
tp3541
aa(lp3542
(Vill
p3543
Vroot
p3544
tp3545
a(VI
p3546
Vnsubj
p3547
tp3548
a(Vdo
p3549
Vaux
p3550
tp3551
a(Vobserve
p3552
g18
tp3553
a(Vshe
p3554
Vdobj
p3555
tp3556
a(Vlearn
p3557
Vconj_but
p3558
tp3559
a(Vdiscover
p3560
Vconj_and
p3561
tp3562
aa(lp3563
(Vit
p3564
Vxsubj
p3565
tp3566
a(Vpossible
p3567
Vxcomp
p3568
tp3569
a(Vto
p3570
Vaux
p3571
tp3572
a(Vaccurately
p3573
Vadvmod
p3574
tp3575
a(Vobserve
p3576
g18
tp3577
a(Vbehavior
p3578
Vdobj
p3579
tp3580
aa(lp3581
(Vrecur
p3582
Vroot
p3583
tp3584
a(Vsee
p3585
Vadvcl
p3586
tp3587
a(Vwe
p3588
Vnsubj
p3589
tp3590
a(Vfirst
p3591
Vadvmod
p3592
tp3593
a(Vobserve
p3594
g18
tp3595
a(g3582
Vccomp
p3596
tp3597
aa(lp3598
(Vshe
p3599
Vxsubj
p3600
tp3601
a(Vhearten
p3602
Vxcomp
p3603
tp3604
a(Vto
p3605
Vaux
p3606
tp3607
a(Vobserve
p3608
g18
tp3609
a(Vcomic
p3610
Vccomp
p3611
tp3612
aa(lp3613
(VKrimsky
p3614
Vxsubj
p3615
tp3616
a(Vplace
p3617
Vxcomp
p3618
tp3619
a(Vto
p3620
Vaux
p3621
tp3622
a(Vobserve
p3623
g18
tp3624
a(Vindividual
p3625
Vdobj
p3626
tp3627
a(Vgroup
p3628
Vdobj
p3629
tp3630
a(Vaction
p3631
Vprep_in
p3632
tp3633
aa(lp3634
(Vwhat
p3635
Vdobj
p3636
tp3637
a(Vwe
p3638
Vnsubj
p3639
tp3640
a(Vobserve
p3641
g18
tp3642
a(Vdatum
p3643
Vprep_in
p3644
tp3645
a(Vdifference
p3646
Vcsubj
p3647
tp3648
aa(lp3649
(Vdismayed
p3650
Vxcomp
p3651
tp3652
a(Vto
p3653
Vaux
p3654
tp3655
a(Vobserve
p3656
g18
tp3657
a(Vtake
p3658
Vccomp
p3659
tp3660
aa(lp3661
(Vagree
p3662
Vprepc_with
p3663
tp3664
a(Vwhat
p3665
Vdobj
p3666
tp3667
a(Vwe
p3668
Vnsubj
p3669
tp3670
a(Vobserve
p3671
g18
tp3672
aa(lp3673
(Vbe
p3674
Vxcomp
p3675
tp3676
a(Vlisten
p3677
Vconj_and
p3678
tp3679
a(Vobserve
p3680
g18
tp3681
aa(lp3682
(Vuseful
p3683
Vdep
p3684
tp3685
a(Vreflect
p3686
Vconj_and
p3687
tp3688
a(Vobserve
p3689
g18
tp3690
a(Vplay
p3691
Vccomp
p3692
tp3693
aa(lp3694
(Vit
p3695
Vxsubj
p3696
tp3697
a(Vinteresting
p3698
Vxcomp
p3699
tp3700
a(Vto
p3701
Vaux
p3702
tp3703
a(Vobserve
p3704
g18
tp3705
a(Vbe
p3706
Vccomp
p3707
tp3708
aa(lp3709
(Vthey
p3710
Vxsubj
p3711
tp3712
a(Vable
p3713
Vxcomp
p3714
tp3715
a(Vto
p3716
Vaux
p3717
tp3718
a(Vobserve
p3719
g18
tp3720
a(Vhand
p3721
Vprep_at
p3722
tp3723
a(Vadaption
p3724
Vdobj
p3725
tp3726
aa(lp3727
(Vfor
p3728
Vroot
p3729
tp3730
a(Vthey
p3731
Vnsubj
p3732
tp3733
a(Vcould
p3734
Vaux
p3735
tp3736
a(Vnot
p3737
Vneg
p3738
tp3739
a(Vobserve
p3740
g18
tp3741
a(Vgive
p3742
Vadvcl
p3743
tp3744
aa(lp3745
(Vcontrol
p3746
Vroot
p3747
tp3748
a(Vone
p3749
Vnsubj
p3750
tp3751
a(Vcan
p3752
Vaux
p3753
tp3754
a(Vagain
p3755
Vadvmod
p3756
tp3757
a(Vobserve
p3758
g18
tp3759
a(Vinitially
p3760
Vadvmod
p3761
tp3762
a(Voscillation
p3763
Vdobj
p3764
tp3765
a(Vsensitive
p3766
Vparataxis
p3767
tp3768
aa(lp3769
(Vhere
p3770
Vrcmod
p3771
tp3772
a(Vwe
p3773
Vnsubj
p3774
tp3775
a(Vobserve
p3776
g18
tp3777
a(Vtension
p3778
Vdobj
p3779
tp3780
aa(lp3781
(Vbe
p3782
Vccomp
p3783
tp3784
a(Vindividual
p3785
Vnsubj
p3786
tp3787
a(Vcan
p3788
Vaux
p3789
tp3790
a(Vobserve
p3791
g18
tp3792
a(Vmarket
p3793
Vdobj
p3794
tp3795
a(Vrate
p3796
Vdobj
p3797
tp3798
aa(lp3799
(Vimportant
p3800
Vccomp
p3801
tp3802
a(Vthat
p3803
Vmark
p3804
tp3805
a(Vassistance
p3806
Vprep_with
p3807
tp3808
a(Vthey
p3809
Vnsubj
p3810
tp3811
a(Vcan
p3812
Vaux
p3813
tp3814
a(Vobserve
p3815
g18
tp3816
a(Vresponse
p3817
Vdobj
p3818
tp3819
a(Vprocess
p3820
Vprep_to
p3821
tp3822
a(Vsee
p3823
Vconj_and
p3824
tp3825
a(Veffect
p3826
Vdobj
p3827
tp3828
aa(lp3829
(Vwe
p3830
Vxsubj
p3831
tp3832
a(Vgo
p3833
Vxcomp
p3834
tp3835
a(Vto
p3836
Vaux
p3837
tp3838
a(Vobserve
p3839
g18
tp3840
a(Vmeeting
p3841
Vdobj
p3842
tp3843
aa(lp3844
(Vit
p3845
Vxsubj
p3846
tp3847
a(Vinteresting
p3848
Vxcomp
p3849
tp3850
a(Vto
p3851
Vaux
p3852
tp3853
a(Vobserve
p3854
g18
tp3855
a(Vwrite
p3856
Vccomp
p3857
tp3858
aa(lp3859
(Vsit
p3860
Vxcomp
p3861
tp3862
a(Vto
p3863
Vaux
p3864
tp3865
a(Vobserve
p3866
g18
tp3867
a(Vrecord
p3868
Vconj_and
p3869
tp3870
a(Vappearance
p3871
Vdobj
p3872
tp3873
a(Vexperience
p3874
Vxsubj
p3875
tp3876
aa(lp3877
(Vparent
p3878
Vinfmod
p3879
tp3880
a(Vto
p3881
Vaux
p3882
tp3883
a(Vobserve
p3884
g18
tp3885
a(Vextinguish
p3886
Vconj_and
p3887
tp3888
a(Vthreat
p3889
Vdobj
p3890
tp3891
a(Vcomfort
p3892
Vprep_to
p3893
tp3894
a(Vsusceptibility
p3895
Vprep_to
p3896
tp3897
aa(lp3898
(Vthey
p3899
Vxsubj
p3900
tp3901
a(Vbe
p3902
Vxcomp
p3903
tp3904
a(Vto
p3905
Vaux
p3906
tp3907
a(Vobserve
p3908
g18
tp3909
a(Vsensation
p3910
Vdobj
p3911
tp3912
aa(lp3913
(Vmember
p3914
Vxsubj
p3915
tp3916
a(Vhave
p3917
Vxcomp
p3918
tp3919
a(Vto
p3920
Vaux
p3921
tp3922
a(Vobserve
p3923
g18
tp3924
a(Vrule
p3925
Vdobj
p3926
tp3927
a(Vperformance
p3928
Vprep_in
p3929
tp3930
aa(lp3931
(Vwedding
p3932
Vxsubj
p3933
tp3934
a(Vfuneral
p3935
Vxsubj
p3936
tp3937
a(Vwithdraw
p3938
Vxcomp
p3939
tp3940
a(Vto
p3941
Vaux
p3942
tp3943
a(Vobserve
p3944
g18
tp3945
a(Vbetter
p3946
Vdobj
p3947
tp3948
aa(lp3949
(Vthey
p3950
Vxsubj
p3951
tp3952
a(Vhave
p3953
Vxcomp
p3954
tp3955
a(Vto
p3956
Vaux
p3957
tp3958
a(Vobserve
p3959
g18
tp3960
a(Vcase
p3961
Vccomp
p3962
tp3963
aa(lp3964
(Vit
p3965
Vxsubj
p3966
tp3967
a(Vdifficult
p3968
Vxcomp
p3969
tp3970
a(Vto
p3971
Vaux
p3972
tp3973
a(Vobserve
p3974
g18
tp3975
a(Vdecay
p3976
Vdobj
p3977
tp3978
aa(lp3979
(VI
p3980
Vxsubj
p3981
tp3982
a(Vwant
p3983
Vxcomp
p3984
tp3985
a(Vto
p3986
Vaux
p3987
tp3988
a(Vobserve
p3989
g18
tp3990
a(Vsocially
p3991
Vdep
p3992
tp3993
aa(lp3994
(Vmarry
p3995
Vroot
p3996
tp3997
a(Vover
p3998
Vmark
p3999
tp4000
a(Vwoman
p4001
Vnsubj
p4002
tp4003
a(Vstill
p4004
Vadvmod
p4005
tp4006
a(Vobserve
p4007
g18
tp4008
a(Vtradition
p4009
Vdobj
p4010
tp4011
aa(lp4012
(Vtheme
p4013
Vxsubj
p4014
tp4015
a(Vthis
p4016
Vxsubj
p4017
tp4018
a(Vrequire
p4019
Vxcomp
p4020
tp4021
a(Vto
p4022
Vaux
p4023
tp4024
a(Vobserve
p4025
g18
tp4026
a(Vbehavior
p4027
Vdobj
p4028
tp4029
a(Vcustom
p4030
Vdobj
p4031
tp4032
a(Vway
p4033
Vdobj
p4034
tp4035
a(Vmood
p4036
Vdobj
p4037
tp4038
aa(lp4039
(Vraven
p4040
Vdobj
p4041
tp4042
a(g4040
Vrcmod
p4043
tp4044
a(VI
p4045
Vnsubj
p4046
tp4047
a(Vobserve
p4048
g18
tp4049
aa(lp4050
(Vanimal
p4051
Vxsubj
p4052
tp4053
a(Vuse
p4054
Vxcomp
p4055
tp4056
a(Vto
p4057
Vaux
p4058
tp4059
a(Vobserve
p4060
g18
tp4061
a(Vreaction
p4062
Vdobj
p4063
tp4064
aa(lp4065
(Vorganization
p4066
Vroot
p4067
tp4068
a(Vas
p4069
Vmark
p4070
tp4071
a(VHannah
p4072
Vnsubj
p4073
tp4074
a(VKay
p4075
Vnsubj
p4076
tp4077
a(Vobserve
p4078
g18
tp4079
a(Vachieve
p4080
Vccomp
p4081
tp4082
a(Vemanate
p4083
Vccomp
p4084
tp4085
aa(lp4086
(Vit
p4087
Vnsubj
p4088
tp4089
a(Vargue
p4090
Vconj_and
p4091
tp4092
a(Vshould
p4093
Vaux
p4094
tp4095
a(Vobserve
p4096
g18
tp4097
a(Vunion
p4098
Vdobj
p4099
tp4100
aa(lp4101
(Vbe
p4102
Vconj_and
p4103
tp4104
a(Vthey
p4105
Vnsubj
p4106
tp4107
a(Vobserve
p4108
g18
tp4109
a(Vsequence
p4110
Vdobj
p4111
tp4112
aa(lp4113
(Vfuture
p4114
Vroot
p4115
tp4116
a(Vwe
p4117
Vnsubj
p4118
tp4119
a(Vobserve
p4120
g18
tp4121
a(Vset
p4122
Vdobj
p4123
tp4124
a(Vdecide
p4125
Vconj_and
p4126
tp4127
a(Vcome
p4128
Vconj_and
p4129
tp4130
a(Vuse
p4131
Vconj_and
p4132
tp4133
aa(lp4134
(Vprofound
p4135
Vroot
p4136
tp4137
a(VChiplin
p4138
Vnsubj
p4139
tp4140
a(VWright
p4141
Vnsubj
p4142
tp4143
a(Vobserve
p4144
g18
tp4145
a(g4135
Vccomp
p4146
tp4147
aa(lp4148
(Vthey
p4149
Vnsubj
p4150
tp4151
a(Vwish
p4152
Vconj_and
p4153
tp4154
a(Vobserve
p4155
g18
tp4156
a(Vgain
p4157
Vdep
p4158
tp4159
aa(lp4160
(Vit
p4161
Vxsubj
p4162
tp4163
a(Vinteresting
p4164
Vxcomp
p4165
tp4166
a(Vto
p4167
Vaux
p4168
tp4169
a(Vobserve
p4170
g18
tp4171
a(Vprevail
p4172
Vccomp
p4173
tp4174
aa(lp4175
(Vplace
p4176
Vxcomp
p4177
tp4178
a(Vto
p4179
Vaux
p4180
tp4181
a(Vobserve
p4182
g18
tp4183
a(Vrequirement
p4184
Vdobj
p4185
tp4186
aa(lp4187
(Vbank
p4188
Vxsubj
p4189
tp4190
a(Vwish
p4191
Vxcomp
p4192
tp4193
a(Vto
p4194
Vaux
p4195
tp4196
a(Vobserve
p4197
g18
tp4198
aa(lp4199
(Videa
p4200
Vxsubj
p4201
tp4202
a(Vencourage
p4203
Vxcomp
p4204
tp4205
a(Vto
p4206
Vaux
p4207
tp4208
a(Vobserve
p4209
g18
tp4210
a(Vother
p4211
Vdobj
p4212
tp4213
aa(lp4214
(Vpublic
p4215
Vnsubj
p4216
tp4217
a(g4215
Vrcmod
p4218
tp4219
a(Vcan
p4220
Vaux
p4221
tp4222
a(Vobserve
p4223
g18
tp4224
a(Vauditor
p4225
Vdobj
p4226
tp4227
a(Vposition
p4228
Vprep_in
p4229
tp4230
aa(lp4231
(Vdesire
p4232
Vdep
p4233
tp4234
a(Vsurrender
p4235
Vconj_negcc
p4236
tp4237
a(Vto
p4238
Vaux
p4239
tp4240
a(Vobserve
p4241
g18
tp4242
a(Vobjectively
p4243
Vadvmod
p4244
tp4245
aa(lp4246
(Vbusy
p4247
Vccomp
p4248
tp4249
a(Vthat
p4250
Vmark
p4251
tp4252
a(Vhe
p4253
Vnsubj
p4254
tp4255
a(Vdo
p4256
Vaux
p4257
tp4258
a(Vnot
p4259
Vneg
p4260
tp4261
a(Vobserve
p4262
g18
tp4263
a(Vgo
p4264
Vccomp
p4265
tp4266
aa(lp4267
(Vopportunity
p4268
Vinfmod
p4269
tp4270
a(Vto
p4271
Vaux
p4272
tp4273
a(Vobserve
p4274
g18
tp4275
a(Vask
p4276
Vconj_and
p4277
tp4278
a(Vquestion
p4279
Vdobj
p4280
tp4281
a(Vattempt
p4282
Vconj_but
p4283
tp4284
aa(lp4285
(Vwe
p4286
Vxsubj
p4287
tp4288
a(Vhave
p4289
Vxcomp
p4290
tp4291
a(Vto
p4292
Vaux
p4293
tp4294
a(Vobserve
p4295
g18
tp4296
a(Vthat
p4297
Vdobj
p4298
tp4299
a(Vdepend
p4300
Vprepc_upon
p4301
tp4302
aa(lp4303
(Vask
p4304
Vccomp
p4305
tp4306
a(Vobserve
p4307
g18
tp4308
a(Vcontents
p4309
Vdobj
p4310
tp4311
a(Vbe
p4312
Vadvcl
p4313
tp4314
a(Vblood
p4315
Vprep_such_as
p4316
tp4317
a(Vchange
p4318
Vprep_such_as
p4319
tp4320
aa(lp4321
(Vto
p4322
Vaux
p4323
tp4324
a(Vobserve
p4325
g18
tp4326
a(Vmethod
p4327
Vdobj
p4328
tp4329
a(Vcome
p4330
Vxcomp
p4331
tp4332
a(Vmonster
p4333
Vxsubj
p4334
tp4335
aa(lp4336
(Vbe
p4337
Vccomp
p4338
tp4339
a(Vexamine
p4340
Vconj_and
p4341
tp4342
a(Vto
p4343
Vaux
p4344
tp4345
a(Vobserve
p4346
g18
tp4347
a(Vcondition
p4348
Vdobj
p4349
tp4350
a(Vcountry
p4351
Vprep_in
p4352
tp4353
aa(lp4354
(Vfamily
p4355
Vnsubj
p4356
tp4357
a(g4355
Vrcmod
p4358
tp4359
a(Voften
p4360
Vadvmod
p4361
tp4362
a(Vobserve
p4363
g18
tp4364
a(Vhave
p4365
Vccomp
p4366
tp4367
a(Videntification
p4368
Vnsubj
p4369
tp4370
aa(lp4371
(Vit
p4372
Vxsubj
p4373
tp4374
a(Vinstructive
p4375
Vxcomp
p4376
tp4377
a(Vto
p4378
Vaux
p4379
tp4380
a(Vobserve
p4381
g18
tp4382
a(Vparent
p4383
Vdobj
p4384
tp4385
aa(lp4386
(Vfact
p4387
Vdobj
p4388
tp4389
a(g4387
Vrcmod
p4390
tp4391
a(Vwe
p4392
Vnsubj
p4393
tp4394
a(Vcan
p4395
Vaux
p4396
tp4397
a(Vtherefore
p4398
Vadvmod
p4399
tp4400
a(Vall
p4401
Vadvmod
p4402
tp4403
a(Vobserve
p4404
g18
tp4405
a(Vdirectly
p4406
Vadvmod
p4407
tp4408
a(Vourselves
p4409
Vprep_for
p4410
tp4411
aa(lp4412
(Vtechnique
p4413
Vnsubj
p4414
tp4415
a(Vbe
p4416
Vconj_and
p4417
tp4418
a(Vobserve
p4419
g18
tp4420
a(Vcreep
p4421
Vdobj
p4422
tp4423
aa(lp4424
(Vrule
p4425
Vdobj
p4426
tp4427
a(g4425
Vrcmod
p4428
tp4429
a(Vregulation
p4430
Vdobj
p4431
tp4432
a(Vyou
p4433
Vnsubj
p4434
tp4435
a(Vmust
p4436
Vaux
p4437
tp4438
a(Vobserve
p4439
g18
tp4440
a(Vinstruction
p4441
Vdobj
p4442
tp4443
aa(lp4444
(VEngland
p4445
Vroot
p4446
tp4447
a(Vcentury
p4448
Vprep_in
p4449
tp4450
a(Vwe
p4451
Vnsubj
p4452
tp4453
a(Vcan
p4454
Vaux
p4455
tp4456
a(Vobserve
p4457
g18
tp4458
a(Vrise
p4459
Vdobj
p4460
tp4461
aa(lp4462
(Vhave
p4463
Vxcomp
p4464
tp4465
a(Vto
p4466
Vaux
p4467
tp4468
a(Vobserve
p4469
g18
tp4470
a(Vunusual
p4471
Vdobj
p4472
tp4473
aa(lp4474
(Vfailure
p4475
Vinfmod
p4476
tp4477
a(Vpay
p4478
Vconj_or
p4479
tp4480
a(Vobserve
p4481
g18
tp4482
a(Vcovenant
p4483
Vdobj
p4484
tp4485
aa(lp4486
(Vcaveat
p4487
Vroot
p4488
tp4489
a(Vresearcher
p4490
Vnsubj
p4491
tp4492
a(Vmust
p4493
Vaux
p4494
tp4495
a(Vobserve
p4496
g18
tp4497
a(g4487
Vdobj
p4498
tp4499
aa(lp4500
(Vo
p4501
Vrcmod
p4502
tp4503
a(Vwe
p4504
Vnsubj
p4505
tp4506
a(Vobserve
p4507
g18
tp4508
a(Vpattern
p4509
Vdobj
p4510
tp4511
aa(lp4512
(V7
p4513
Vdep
p4514
tp4515
a(Vsee
p4516
Vconj_or
p4517
tp4518
a(Vobserve
p4519
g18
tp4520
a(Vchange
p4521
Vdobj
p4522
tp4523
a(Vlump
p4524
Vdobj
p4525
tp4526
a(Vsymptom
p4527
Vadvcl
p4528
tp4529
a(Vcheck
p4530
Vadvcl
p4531
tp4532
aa(lp4533
(Vjustice
p4534
Vroot
p4535
tp4536
a(Vtribunal
p4537
Vnsubj
p4538
tp4539
a(Vneed
p4540
Vaux
p4541
tp4542
a(Vnot
p4543
Vneg
p4544
tp4545
a(Valways
p4546
Vadvmod
p4547
tp4548
a(Vobserve
p4549
g18
tp4550
a(Vprocedure
p4551
Vdobj
p4552
tp4553
aa(lp4554
(Vability
p4555
Vinfmod
p4556
tp4557
a(Vto
p4558
Vaux
p4559
tp4560
a(Vobserve
p4561
g18
tp4562
aa(lp4563
(Vtranslationsee
p4564
Vccomp
p4565
tp4566
a(Vpagodaus
p4567
Vnsubj
p4568
tp4569
a(Vobserve
p4570
g18
tp4571
a(Vhandsa
p4572
Vdobj
p4573
tp4574
a(Vbelongedglib
p4575
Vadvcl
p4576
tp4577
aa(lp4578
(Valive
p4579
Vroot
p4580
tp4581
a(Vwar
p4582
Vprep_after
p4583
tp4584
a(Vone
p4585
Vnsubj
p4586
tp4587
a(Vcould
p4588
Vaux
p4589
tp4590
a(Vobserve
p4591
g18
tp4592
a(Vkill
p4593
Vccomp
p4594
tp4595
aa(lp4596
(Vallow
p4597
Vxcomp
p4598
tp4599
a(Vto
p4600
Vaux
p4601
tp4602
a(Vobserve
p4603
g18
tp4604
a(Vit
p4605
Vdobj
p4606
tp4607
a(Vexample
p4608
Vprep_for
p4609
tp4610
aa(lp4611
(Vbegin
p4612
Vxcomp
p4613
tp4614
a(Vto
p4615
Vaux
p4616
tp4617
a(Vobserve
p4618
g18
tp4619
aa(lp4620
(Vwatch
p4621
Vccomp
p4622
tp4623
a(Vyou
p4624
Vnsubj
p4625
tp4626
a(Vobserve
p4627
g18
tp4628
a(Veffort
p4629
Vdobj
p4630
tp4631
a(Vsave
p4632
Vxcomp
p4633
tp4634
aa(lp4635
(Vsuffice
p4636
Vxcomp
p4637
tp4638
a(Vit
p4639
Vnsubj
p4640
tp4641
a(Vto
p4642
Vaux
p4643
tp4644
a(Vobserve
p4645
g18
tp4646
a(Vmeanwhile
p4647
Vadvmod
p4648
tp4649
a(Vrequire
p4650
Vccomp
p4651
tp4652
aa(lp4653
(Vday
p4654
Vinfmod
p4655
tp4656
a(Vto
p4657
Vaux
p4658
tp4659
a(Vobserve
p4660
g18
tp4661
a(Vdeer
p4662
Vdobj
p4663
tp4664
a(Vfield
p4665
Vprep_in
p4666
tp4667
aa(lp4668
(Vhe
p4669
Vxsubj
p4670
tp4671
a(Vbe
p4672
Vxcomp
p4673
tp4674
a(Vto
p4675
Vaux
p4676
tp4677
a(Vobserve
p4678
g18
tp4679
a(Vclosely
p4680
Vadvmod
p4681
tp4682
a(Vreaction
p4683
Vdobj
p4684
tp4685
a(Valso
p4686
Vdobj
p4687
tp4688
a(Vestablishment
p4689
Vdobj
p4690
tp4691
aa(lp4692
(Vwhen
p4693
Vadvmod
p4694
tp4695
a(Vyou
p4696
Vnsubj
p4697
tp4698
a(Vobserve
p4699
g18
tp4700
a(Vtake
p4701
Vadvcl
p4702
tp4703
aa(lp4704
(Vparty
p4705
Vxsubj
p4706
tp4707
a(Vrequire
p4708
Vxcomp
p4709
tp4710
a(Vto
p4711
Vaux
p4712
tp4713
a(Vobserve
p4714
g18
tp4715
a(Vstandard
p4716
Vdobj
p4717
tp4718
aa(lp4719
(Vfar
p4720
Vroot
p4721
tp4722
a(Vand
p4723
Vcc
p4724
tp4725
a(Vto
p4726
Vaux
p4727
tp4728
a(Vobserve
p4729
g18
tp4730
a(Vrequire
p4731
Vccomp
p4732
tp4733
aa(lp4734
(Vdrainage
p4735
Vroot
p4736
tp4737
a(Vto
p4738
Vaux
p4739
tp4740
a(Vobserve
p4741
g18
tp4742
a(Vwound
p4743
Vdobj
p4744
tp4745
a(g4735
Vdobj
p4746
tp4747
aa(lp4748
(Vimpossible
p4749
Vdep
p4750
tp4751
a(Vto
p4752
Vaux
p4753
tp4754
a(Vobserve
p4755
g18
tp4756
a(Vletter
p4757
Vdobj
p4758
tp4759
a(Vsuppress
p4760
Vconj_or
p4761
tp4762
aa(lp4763
(Vwork
p4764
Vxsubj
p4765
tp4766
a(Vrequire
p4767
Vxcomp
p4768
tp4769
a(Vto
p4770
Vaux
p4771
tp4772
a(Vobserve
p4773
g18
tp4774
a(Vuser
p4775
Vdobj
p4776
tp4777
a(Vactivity
p4778
Vprep_during
p4779
tp4780
a(Vmake
p4781
Vadvcl
p4782
tp4783
aa(lp4784
(VI
p4785
Vxsubj
p4786
tp4787
a(Vwish
p4788
Vxcomp
p4789
tp4790
a(Vto
p4791
Vaux
p4792
tp4793
a(Vobserve
p4794
g18
tp4795
a(Vbe
p4796
Vccomp
p4797
tp4798
aa(lp4799
(VI
p4800
Vxsubj
p4801
tp4802
a(Vable
p4803
Vxcomp
p4804
tp4805
a(Vto
p4806
Vaux
p4807
tp4808
a(Vobserve
p4809
g18
tp4810
a(Vlesson
p4811
Vdobj
p4812
tp4813
aa(lp4814
(VHortensia
p4815
Vxsubj
p4816
tp4817
a(Vpause
p4818
Vxcomp
p4819
tp4820
a(Vto
p4821
Vaux
p4822
tp4823
a(Vobserve
p4824
g18
tp4825
a(Veffect
p4826
Vdobj
p4827
tp4828
aa(lp4829
(VI
p4830
Vxsubj
p4831
tp4832
a(Vhave
p4833
Vxcomp
p4834
tp4835
a(Vto
p4836
Vaux
p4837
tp4838
a(Vobserve
p4839
g18
tp4840
a(Vdraw
p4841
Vconj_and
p4842
tp4843
a(Veverything
p4844
Vdobj
p4845
tp4846
a(Vbegin
p4847
Vccomp
p4848
tp4849
aa(lp4850
(VAusten
p4851
Vxsubj
p4852
tp4853
a(Vkeep
p4854
Vxcomp
p4855
tp4856
a(Vto
p4857
Vaux
p4858
tp4859
a(Vobserve
p4860
g18
tp4861
a(Vmore
p4862
Vadvmod
p4863
tp4864
a(Vwretchedness
p4865
Vprep_than
p4866
tp4867
aa(lp4868
(Vone
p4869
Vxsubj
p4870
tp4871
a(Vexpect
p4872
Vxcomp
p4873
tp4874
a(Vto
p4875
Vaux
p4876
tp4877
a(Vobserve
p4878
g18
tp4879
a(Vdecay
p4880
Vdobj
p4881
tp4882
aa(lp4883
(VI
p4884
Vxsubj
p4885
tp4886
a(Vhave
p4887
Vxcomp
p4888
tp4889
a(Vto
p4890
Vaux
p4891
tp4892
a(Vobserve
p4893
g18
tp4894
a(Vbefore
p4895
Vadvmod
p4896
tp4897
aa(lp4898
(Vcommit
p4899
Vdep
p4900
tp4901
a(Vrespect
p4902
Vconj_and
p4903
tp4904
a(Vto
p4905
Vaux
p4906
tp4907
a(Vobserve
p4908
g18
tp4909
a(Vboundary
p4910
Vdobj
p4911
tp4912
aa(lp4913
(Vtime
p4914
Vinfmod
p4915
tp4916
a(Vfeed
p4917
Vconj_and
p4918
tp4919
a(Vobserve
p4920
g18
tp4921
a(Vit
p4922
Vdobj
p4923
tp4924
aa(lp4925
(Veasiest
p4926
Vdep
p4927
tp4928
a(Vto
p4929
Vaux
p4930
tp4931
a(Vobserve
p4932
g18
tp4933
a(Vrecord
p4934
Vprep_in
p4935
tp4936
a(Vbelieve
p4937
Vadvcl
p4938
tp4939
aa(lp4940
(Vplace
p4941
Vroot
p4942
tp4943
a(Vyet
p4944
Vadvmod
p4945
tp4946
a(Vexamine
p4947
Vadvcl
p4948
tp4949
a(Vwe
p4950
Vnsubj
p4951
tp4952
a(Vobserve
p4953
g18
tp4954
a(Vexercise
p4955
Vdobj
p4956
tp4957
aa(lp4958
(Vopportunity
p4959
Vinfmod
p4960
tp4961
a(Vto
p4962
Vaux
p4963
tp4964
a(Vobserve
p4965
g18
tp4966
a(Vask
p4967
Vconj_and
p4968
tp4969
a(Vquestion
p4970
Vdobj
p4971
tp4972
aa(lp4973
(Vcourt
p4974
Vxsubj
p4975
tp4976
a(Vask
p4977
Vxcomp
p4978
tp4979
a(Vto
p4980
Vaux
p4981
tp4982
a(Vobserve
p4983
g18
tp4984
a(Vitself
p4985
Vprep_for
p4986
tp4987
aa(lp4988
(Vpurpose
p4989
Vxsubj
p4990
tp4991
a(Vbe
p4992
Vxcomp
p4993
tp4994
a(Vto
p4995
Vaux
p4996
tp4997
a(Vobserve
p4998
g18
tp4999
a(Veffect
p5000
Vdobj
p5001
tp5002
a(Vactivity
p5003
Vprep_on
p5004
tp5005
aa(lp5006
(VI
p5007
Vxsubj
p5008
tp5009
a(Vable
p5010
Vxcomp
p5011
tp5012
a(Vto
p5013
Vaux
p5014
tp5015
a(Vobserve
p5016
g18
tp5017
a(Vlesson
p5018
Vdobj
p5019
tp5020
aa(lp5021
(Vneed
p5022
Vinfmod
p5023
tp5024
a(Vto
p5025
Vaux
p5026
tp5027
a(Vobserve
p5028
g18
tp5029
a(Vpassage
p5030
Vdobj
p5031
tp5032
aa(lp5033
(Voperate
p5034
Vparataxis
p5035
tp5036
a(Vthey
p5037
Vnsubj
p5038
tp5039
a(Vmust
p5040
Vaux
p5041
tp5042
a(Vobserve
p5043
g18
tp5044
a(Vregulation
p5045
Vdobj
p5046
tp5047
a(Vcomply
p5048
Vconj_and
p5049
tp5050
aa(lp5051
(Vanimal
p5052
Vxsubj
p5053
tp5054
a(Vdifficult
p5055
Vxcomp
p5056
tp5057
a(Vto
p5058
Vaux
p5059
tp5060
a(Vobserve
p5061
g18
tp5062
aa(lp5063
(VWaugh
p5064
Vxsubj
p5065
tp5066
a(Vbe
p5067
Vxcomp
p5068
tp5069
a(Vto
p5070
Vaux
p5071
tp5072
a(Vobserve
p5073
g18
tp5074
a(Vhe
p5075
Vxcomp
p5076
tp5077
aa(lp5078
(VI
p5079
Vxsubj
p5080
tp5081
a(Vinterested
p5082
Vxcomp
p5083
tp5084
a(Vto
p5085
Vaux
p5086
tp5087
a(Vobserve
p5088
g18
tp5089
a(Vbe
p5090
Vccomp
p5091
tp5092
aa(lp5093
(Vown
p5094
Vparataxis
p5095
tp5096
a(VI
p5097
Vnsubj
p5098
tp5099
a(Vcould
p5100
Vaux
p5101
tp5102
a(Vnot
p5103
Vneg
p5104
tp5105
a(Vobserve
p5106
g18
tp5107
a(Vwish
p5108
Vxcomp
p5109
tp5110
a(Vhave
p5111
Vconj_but
p5112
tp5113
aa(lp5114
(Vrequirement
p5115
Vdep
p5116
tp5117
a(Vthat
p5118
Vmark
p5119
tp5120
a(Vexpert
p5121
Vnsubj
p5122
tp5123
a(Vobserve
p5124
g18
tp5125
a(Vrule
p5126
Vdobj
p5127
tp5128
aa(lp5129
(Vinvolve
p5130
Vxcomp
p5131
tp5132
a(Vto
p5133
Vaux
p5134
tp5135
a(Vobserve
p5136
g18
tp5137
a(Vceasefire
p5138
Vdobj
p5139
tp5140
a(Vallow
p5141
Vxcomp
p5142
tp5143
aa(lp5144
(V2b
p5145
Vdobj
p5146
tp5147
a(g5145
Vrcmod
p5148
tp5149
a(Vwe
p5150
Vnsubj
p5151
tp5152
a(Vcan
p5153
Vaux
p5154
tp5155
a(Vobserve
p5156
g18
tp5157
a(Vdue
p5158
Vxcomp
p5159
tp5160
aa(lp5161
(Vcontinue
p5162
Vxcomp
p5163
tp5164
a(Vto
p5165
Vaux
p5166
tp5167
a(Vobserve
p5168
g18
tp5169
a(Vrite
p5170
Vdobj
p5171
tp5172
aa(lp5173
(Vit
p5174
Vxsubj
p5175
tp5176
a(Vright
p5177
Vxcomp
p5178
tp5179
a(Vto
p5180
Vaux
p5181
tp5182
a(Vobserve
p5183
g18
tp5184
a(Vthat
p5185
Vadvmod
p5186
tp5187
a(Vdecision
p5188
Vprep_until
p5189
tp5190
aa(lp5191
(Vprovide
p5192
Vccomp
p5193
tp5194
a(Vthat
p5195
Vmark
p5196
tp5197
a(Vfirm
p5198
Vnsubj
p5199
tp5200
a(Vshould
p5201
Vaux
p5202
tp5203
a(Vobserve
p5204
g18
tp5205
a(Vstandard
p5206
Vdobj
p5207
tp5208
aa(lp5209
(Vburden
p5210
Vxcomp
p5211
tp5212
a(Vto
p5213
Vaux
p5214
tp5215
a(Vobserve
p5216
g18
tp5217
a(Vthey
p5218
Vdobj
p5219
tp5220
aa(lp5221
(Vsend
p5222
Vxcomp
p5223
tp5224
a(Vteam
p5225
Vnsubj
p5226
tp5227
a(Vto
p5228
Vaux
p5229
tp5230
a(Vobserve
p5231
g18
tp5232
a(Vprocess
p5233
Vdobj
p5234
tp5235
aa(lp5236
(Vfactor
p5237
Vroot
p5238
tp5239
a(Vauthor
p5240
Vnsubj
p5241
tp5242
a(Vobserve
p5243
g18
tp5244
a(Vcharacterize
p5245
Vccomp
p5246
tp5247
aa(lp5248
(Vuse
p5249
Vccomp
p5250
tp5251
a(Vwhich
p5252
Vnsubj
p5253
tp5254
a(Vobserve
p5255
g18
tp5256
a(Vpattern
p5257
Vdobj
p5258
tp5259
aa(lp5260
(Vit
p5261
Vxsubj
p5262
tp5263
a(Vpossible
p5264
Vxcomp
p5265
tp5266
a(Vto
p5267
Vaux
p5268
tp5269
a(Vobserve
p5270
g18
tp5271
a(Venjoy
p5272
Vconj_and
p5273
tp5274
a(Vsideline
p5275
Vprep_from
p5276
tp5277
aa(lp5278
(Vperform
p5279
Vadvcl
p5280
tp5281
a(Vso
p5282
Vmark
p5283
tp5284
a(Vthat
p5285
Vmark
p5286
tp5287
a(Vinterviewer
p5288
Vnsubj
p5289
tp5290
a(Vcould
p5291
Vaux
p5292
tp5293
a(Vobserve
p5294
g18
tp5295
a(Vcapacity
p5296
Vdobj
p5297
tp5298
aa(lp5299
(Vadult
p5300
Vroot
p5301
tp5302
a(Vah
p5303
Vdep
p5304
tp5305
a(Vable
p5306
Vadvcl
p5307
tp5308
a(Vobserve
p5309
g18
tp5310
a(Vlearn
p5311
Vccomp
p5312
tp5313
a(Vhave
p5314
Vccomp
p5315
tp5316
a(Volder
p5317
Vnsubj
p5318
tp5319
aa(lp5320
(Vother
p5321
Vxsubj
p5322
tp5323
a(Vcontinue
p5324
Vxcomp
p5325
tp5326
a(Vto
p5327
Vaux
p5328
tp5329
a(Vobserve
p5330
g18
tp5331
a(Vworld
p5332
Vdobj
p5333
tp5334
a(Vattention
p5335
Vprep_with
p5336
tp5337
aa(lp5338
(Vowner
p5339
Vxsubj
p5340
tp5341
a(Vfail
p5342
Vxcomp
p5343
tp5344
a(Vto
p5345
Vaux
p5346
tp5347
a(Vobserve
p5348
g18
tp5349
a(Vregulation
p5350
Vdobj
p5351
tp5352
aa(lp5353
(Vparent
p5354
Vroot
p5355
tp5356
a(Vtouch
p5357
Vpartmod
p5358
tp5359
a(VI
p5360
Vnsubj
p5361
tp5362
a(Vshould
p5363
Vaux
p5364
tp5365
a(Vobserve
p5366
g18
tp5367
a(Venrich
p5368
Vccomp
p5369
tp5370
aa(lp5371
(Vif
p5372
Vmark
p5373
tp5374
a(Vwe
p5375
Vnsubj
p5376
tp5377
a(Vobserve
p5378
g18
tp5379
a(Vinjury
p5380
Vdobj
p5381
tp5382
a(Vdisease
p5383
Vdobj
p5384
tp5385
a(Vattempt
p5386
Vadvcl
p5387
tp5388
aa(lp5389
(Voccur
p5390
Vadvcl
p5391
tp5392
a(Vas
p5393
Vmark
p5394
tp5395
a(Vmany
p5396
Vnsubj
p5397
tp5398
a(Vobserve
p5399
g18
tp5400
a(Vcollapse
p5401
Vdobj
p5402
tp5403
aa(lp5404
(Vbe
p5405
Vadvcl
p5406
tp5407
a(Vbecause
p5408
Vmark
p5409
tp5410
a(Vwe
p5411
Vnsubj
p5412
tp5413
a(Vcan
p5414
Vaux
p5415
tp5416
a(Vnot
p5417
Vneg
p5418
tp5419
a(Vobserve
p5420
g18
tp5421
a(Vexist
p5422
Vccomp
p5423
tp5424
aa(lp5425
(Vit
p5426
Vxsubj
p5427
tp5428
a(Vseemly
p5429
Vxcomp
p5430
tp5431
a(Vto
p5432
Vaux
p5433
tp5434
a(Vobserve
p5435
g18
tp5436
a(Vclosely
p5437
Vadvmod
p5438
tp5439
aa(lp5440
(Vforce
p5441
Vxcomp
p5442
tp5443
a(Vto
p5444
Vaux
p5445
tp5446
a(Vobserve
p5447
g18
tp5448
a(Vlaw
p5449
Vdobj
p5450
tp5451
aa(lp5452
(VMarsden
p5453
Vxsubj
p5454
tp5455
a(Vone
p5456
Vxcomp
p5457
tp5458
a(Vto
p5459
Vaux
p5460
tp5461
a(Vobserve
p5462
g18
tp5463
a(Vbehavior
p5464
Vdobj
p5465
tp5466
aa(lp5467
(Vit
p5468
Vxsubj
p5469
tp5470
a(Vnecessary
p5471
Vxcomp
p5472
tp5473
a(Vto
p5474
Vaux
p5475
tp5476
a(Vobserve
p5477
g18
tp5478
a(Vconsequence
p5479
Vccomp
p5480
tp5481
aa(lp5482
(Vthis
p5483
Vrcmod
p5484
tp5485
a(Vobserve
p5486
g18
tp5487
a(Vbe
p5488
Vccomp
p5489
tp5490
aa(lp5491
(Vsuperconductivity
p5492
Vroot
p5493
tp5494
a(Vwe
p5495
Vnsubj
p5496
tp5497
a(Vobserve
p5498
g18
tp5499
a(Vevidence
p5500
Vdobj
p5501
tp5502
aa(lp5503
(Vpsychologist
p5504
Vxsubj
p5505
tp5506
a(Vinvite
p5507
Vxcomp
p5508
tp5509
a(Vto
p5510
Vaux
p5511
tp5512
a(Vobserve
p5513
g18
tp5514
a(Vit
p5515
Vxcomp
p5516
tp5517
aa(lp5518
(Vit
p5519
Vxsubj
p5520
tp5521
a(Venough
p5522
Vxcomp
p5523
tp5524
a(Vto
p5525
Vaux
p5526
tp5527
a(Vobserve
p5528
g18
tp5529
a(Varrive
p5530
Vccomp
p5531
tp5532
aa(lp5533
(Vstart
p5534
Vxcomp
p5535
tp5536
a(Vto
p5537
Vaux
p5538
tp5539
a(Vobserve
p5540
g18
tp5541
a(Vaction
p5542
Vdobj
p5543
tp5544
a(Vreaction
p5545
Vdobj
p5546
tp5547
a(Vsituation
p5548
Vprep_to
p5549
tp5550
aa(lp5551
(Vit
p5552
Vxsubj
p5553
tp5554
a(Vimportant
p5555
Vxcomp
p5556
tp5557
a(Vto
p5558
Vaux
p5559
tp5560
a(Vobserve
p5561
g18
tp5562
a(Vbehavior
p5563
Vdobj
p5564
tp5565
a(Vas
p5566
Vadvmod
p5567
tp5568
aa(lp5569
(Vsomething
p5570
Vdobj
p5571
tp5572
a(g5570
Vrcmod
p5573
tp5574
a(Vyou
p5575
Vnsubj
p5576
tp5577
a(Vcan
p5578
Vaux
p5579
tp5580
a(Vobserve
p5581
g18
tp5582
a(Vyourself
p5583
Vprep_for
p5584
tp5585
a(Vplace
p5586
Vprep_in
p5587
tp5588
aa(lp5589
(Vfailure
p5590
Vinfmod
p5591
tp5592
a(Vto
p5593
Vaux
p5594
tp5595
a(Vobserve
p5596
g18
tp5597
a(Vban
p5598
Vdobj
p5599
tp5600
aa(lp5601
(Vin
p5602
Vmark
p5603
tp5604
a(Vthere
p5605
Vexpl
p5606
tp5607
a(Vto
p5608
Vaux
p5609
tp5610
a(Vobserve
p5611
g18
tp5612
a(Veffect
p5613
Vdobj
p5614
tp5615
a(g5613
Vnsubj
p5616
tp5617
a(Vsay
p5618
Vadvcl
p5619
tp5620
aa(lp5621
(Vdevelop
p5622
Vroot
p5623
tp5624
a(Vone
p5625
Vnsubj
p5626
tp5627
a(Vobserve
p5628
g18
tp5629
a(Vbehavior
p5630
Vdobj
p5631
tp5632
a(g5622
Vadvcl
p5633
tp5634
aa(lp5635
(Vit
p5636
Vxsubj
p5637
tp5638
a(Vnecessary
p5639
Vxcomp
p5640
tp5641
a(Vto
p5642
Vaux
p5643
tp5644
a(Vobserve
p5645
g18
tp5646
a(Vdifference
p5647
Vdobj
p5648
tp5649
a(Vstructure
p5650
Vprep_in
p5651
tp5652
aa(lp5653
(Vlandlord
p5654
Vinfmod
p5655
tp5656
a(Vperform
p5657
Vconj_and
p5658
tp5659
a(Vobserve
p5660
g18
tp5661
aa(lp5662
(Vastonish
p5663
Vxcomp
p5664
tp5665
a(Vto
p5666
Vaux
p5667
tp5668
a(Vobserve
p5669
g18
tp5670
a(Vsoldier
p5671
Vdobj
p5672
tp5673
aa(lp5674
(VI
p5675
Vxsubj
p5676
tp5677
a(Vmake
p5678
Vxcomp
p5679
tp5680
a(Vto
p5681
Vaux
p5682
tp5683
a(Vobserve
p5684
g18
tp5685
a(Vit
p5686
Vdobj
p5687
tp5688
aa(lp5689
(Vcourt
p5690
Vxsubj
p5691
tp5692
a(Vask
p5693
Vxcomp
p5694
tp5695
a(Vto
p5696
Vaux
p5697
tp5698
a(Vobserve
p5699
g18
tp5700
a(Vsize
p5701
Vdobj
p5702
tp5703
a(Vbuild
p5704
Vconj_and
p5705
tp5706
aa(lp5707
(Vwork
p5708
Vroot
p5709
tp5710
a(Vhowever
p5711
Vadvmod
p5712
tp5713
a(Vthey
p5714
Vnsubj
p5715
tp5716
a(Vdo
p5717
Vaux
p5718
tp5719
a(Vobserve
p5720
g18
tp5721
a(g5708
Vdobj
p5722
tp5723
aa(lp5724
(Vchoice
p5725
Vinfmod
p5726
tp5727
a(Vto
p5728
Vaux
p5729
tp5730
a(Vobserve
p5731
g18
tp5732
a(Vsilently
p5733
Vadvmod
p5734
tp5735
aa(lp5736
(Vfig
p5737
Vroot
p5738
tp5739
a(Vwe
p5740
Vnsubj
p5741
tp5742
a(Vdo
p5743
Vaux
p5744
tp5745
a(Vobserve
p5746
g18
tp5747
a(Vbackground
p5748
Vdobj
p5749
tp5750
aa(lp5751
(Vit
p5752
Vxsubj
p5753
tp5754
a(Vsurprising
p5755
Vxcomp
p5756
tp5757
a(Vto
p5758
Vaux
p5759
tp5760
a(Vobserve
p5761
g18
tp5762
a(Vtendency
p5763
Vdobj
p5764
tp5765
a(Vmaterialist
p5766
Vprep_amongst
p5767
tp5768
a(Vtreat
p5769
Vxcomp
p5770
tp5771
aa(lp5772
(Vreason
p5773
Vroot
p5774
tp5775
a(Vpeople
p5776
Vnsubj
p5777
tp5778
a(Vdo
p5779
Vaux
p5780
tp5781
a(Vnot
p5782
Vneg
p5783
tp5784
a(Valways
p5785
Vadvmod
p5786
tp5787
a(Vobserve
p5788
g18
tp5789
a(Vprinciple
p5790
Vdobj
p5791
tp5792
a(Vsuspect
p5793
Vconj_but
p5794
tp5795
aa(lp5796
(Vout
p5797
Vroot
p5798
tp5799
a(Vscale
p5800
Vprep_on
p5801
tp5802
a(Vone
p5803
Vnsubj
p5804
tp5805
a(Vmight
p5806
Vaux
p5807
tp5808
a(Vobserve
p5809
g18
tp5810
a(Vgive
p5811
Vccomp
p5812
tp5813
a(Vone
p5814
Vdep
p5815
tp5816
a(Vstrange
p5817
Vdep
p5818
tp5819
aa(lp5820
(Vthey
p5821
Vxsubj
p5822
tp5823
a(Vbegin
p5824
Vxcomp
p5825
tp5826
a(Vto
p5827
Vaux
p5828
tp5829
a(Vobserve
p5830
g18
tp5831
a(Vanimal
p5832
Vdobj
p5833
tp5834
aa(lp5835
(Vinvite
p5836
Vccomp
p5837
tp5838
a(Vreader
p5839
Vnsubj
p5840
tp5841
a(Vsend
p5842
Vccomp
p5843
tp5844
a(Vobserve
p5845
g18
tp5846
a(Vthing
p5847
Vdobj
p5848
tp5849
a(Vaccept
p5850
Vprepc_instead_of
p5851
tp5852
aa(lp5853
(VCorporation
p5854
Vxsubj
p5855
tp5856
a(Vstress
p5857
Vxcomp
p5858
tp5859
a(Vto
p5860
Vaux
p5861
tp5862
a(Vobserve
p5863
g18
tp5864
a(Vadvice
p5865
Vdobj
p5866
tp5867
a(Vbe
p5868
Vadvcl
p5869
tp5870
aa(lp5871
(Vprofession
p5872
Vroot
p5873
tp5874
a(Vhowever
p5875
Vadvmod
p5876
tp5877
a(Vpractise
p5878
Vadvcl
p5879
tp5880
a(Vauditor
p5881
Vnsubj
p5882
tp5883
a(Vmust
p5884
Vaux
p5885
tp5886
a(Vobserve
p5887
g18
tp5888
a(Vrule
p5889
Vdobj
p5890
tp5891
aa(lp5892
(Vgo
p5893
Vprep_on
p5894
tp5895
a(Vcite
p5896
Vconj_and
p5897
tp5898
a(Vto
p5899
Vaux
p5900
tp5901
a(Vobserve
p5902
g18
tp5903
a(Vthat
p5904
Vdobj
p5905
tp5906
aa(lp5907
(Vfactor
p5908
Vroot
p5909
tp5910
a(Vmanagement
p5911
Vnsubj
p5912
tp5913
a(Vshould
p5914
Vaux
p5915
tp5916
a(Vobserve
p5917
g18
tp5918
a(Vreact
p5919
Vconj_and
p5920
tp5921
a(Vchange
p5922
Vprep_to
p5923
tp5924
a(g5908
Vdobj
p5925
tp5926
aa(lp5927
(Vform
p5928
Vroot
p5929
tp5930
a(Vsong
p5931
Vnsubj
p5932
tp5933
a(Vdo
p5934
Vaux
p5935
tp5936
a(Vnot
p5937
Vneg
p5938
tp5939
a(Vobserve
p5940
g18
tp5941
a(Vnicety
p5942
Vdobj
p5943
tp5944
aa(lp5945
(Vcarry
p5946
Vxcomp
p5947
tp5948
a(Vto
p5949
Vaux
p5950
tp5951
a(Vobserve
p5952
g18
tp5953
a(Vpractice
p5954
Vdobj
p5955
tp5956
a(Vframework
p5957
Vprep_within
p5958
tp5959
a(Vpoint
p5960
Vprep_within
p5961
tp5962
a(Vteacherthe
p5963
Vprep_for
p5964
tp5965
aa(lp5966
(Vfolk
p5967
Vxsubj
p5968
tp5969
a(Vfail
p5970
Vxcomp
p5971
tp5972
a(Vto
p5973
Vaux
p5974
tp5975
a(Vobserve
p5976
g18
tp5977
a(Vmake
p5978
Vccomp
p5979
tp5980
aa(lp5981
(Vreclaim
p5982
Vxcomp
p5983
tp5984
a(Vto
p5985
Vaux
p5986
tp5987
a(Vobserve
p5988
g18
tp5989
a(Vclause
p5990
Vdobj
p5991
tp5992
a(Vtreaty
p5993
Vprep_in
p5994
tp5995
aa(lp5996
(Vcentury
p5997
Vmark
p5998
tp5999
a(Vassert
p6000
Vccomp
p6001
tp6002
a(Vall
p6003
Vnsubj
p6004
tp6005
a(Vshould
p6006
Vaux
p6007
tp6008
a(Vobserve
p6009
g18
tp6010
a(Vtradition
p6011
Vdobj
p6012
tp6013
aa(lp6014
(Vblock
p6015
Vdobj
p6016
tp6017
a(g6015
Vrcmod
p6018
tp6019
a(Vwe
p6020
Vnsubj
p6021
tp6022
a(Vobserve
p6023
g18
tp6024
aa(lp6025
(Vengage
p6026
Vconj_and
p6027
tp6028
a(Voriginator
p6029
Vnsubj
p6030
tp6031
a(Vsit
p6032
Vconj_and
p6033
tp6034
a(Vobserve
p6035
g18
tp6036
a(Vset
p6037
Vccomp
p6038
tp6039
aa(lp6040
(Vshe
p6041
Vxsubj
p6042
tp6043
a(Vbegin
p6044
Vxcomp
p6045
tp6046
a(Vto
p6047
Vaux
p6048
tp6049
a(Vobserve
p6050
g18
tp6051
a(Vmiracle
p6052
Vccomp
p6053
tp6054
aa(lp6055
(VColeman
p6056
Vxsubj
p6057
tp6058
a(Vuse
p6059
Vxcomp
p6060
tp6061
a(Vto
p6062
Vaux
p6063
tp6064
a(Vobserve
p6065
g18
tp6066
a(Vprove
p6067
Vccomp
p6068
tp6069
aa(lp6070
(Vmake
p6071
Vconj_and
p6072
tp6073
a(Vstaff
p6074
Vnsubj
p6075
tp6076
a(Vsettle
p6077
Vconj_and
p6078
tp6079
a(Vobserve
p6080
g18
tp6081
a(Vversion
p6082
Vdobj
p6083
tp6084
aa(lp6085
(Vdivergence
p6086
Vdobj
p6087
tp6088
a(g6086
Vrcmod
p6089
tp6090
a(Vwe
p6091
Vnsubj
p6092
tp6093
a(Vnow
p6094
Vadvmod
p6095
tp6096
a(Vobserve
p6097
g18
tp6098
a(Vphase
p6099
Vprep_in
p6100
tp6101
aa(lp6102
(Vproblem
p6103
Vroot
p6104
tp6105
a(Vthey
p6106
Vnsubj
p6107
tp6108
a(Vwill
p6109
Vaux
p6110
tp6111
a(Vobserve
p6112
g18
tp6113
a(Vprocess
p6114
Vdobj
p6115
tp6116
aa(lp6117
(Vpermit
p6118
Vxcomp
p6119
tp6120
a(Vofficer
p6121
Vnsubj
p6122
tp6123
a(Vto
p6124
Vaux
p6125
tp6126
a(Vobserve
p6127
g18
tp6128
a(Vquality
p6129
Vdobj
p6130
tp6131
a(Vprocedure
p6132
Vnpadvmod
p6133
tp6134
a(Vpart
p6135
Vprep_as
p6136
tp6137
aa(lp6138
(Vchoose
p6139
Vadvcl
p6140
tp6141
a(Vwhere
p6142
Vadvmod
p6143
tp6144
a(Vyou
p6145
Vnsubj
p6146
tp6147
a(V'll
p6148
Vaux
p6149
tp6150
a(Vobserve
p6151
g18
tp6152
a(Vlife
p6153
Vdobj
p6154
tp6155
a(Vwalk
p6156
Vprepc_while
p6157
tp6158
aa(lp6159
(Vnetwork
p6160
Vroot
p6161
tp6162
a(Vwe
p6163
Vnsubj
p6164
tp6165
a(Vcan
p6166
Vaux
p6167
tp6168
a(Vobserve
p6169
g18
tp6170
a(Vtrend
p6171
Vdobj
p6172
tp6173
aa(lp6174
(Vright
p6175
Vinfmod
p6176
tp6177
a(Vto
p6178
Vaux
p6179
tp6180
a(Vrestrict
p6181
Vxcomp
p6182
tp6183
a(Vright
p6184
Vnsubj
p6185
tp6186
a(Vto
p6187
Vaux
p6188
tp6189
a(Vobserve
p6190
g18
tp6191
a(Vif
p6192
Vdep
p6193
tp6194
aa(lp6195
(Vdo
p6196
Vroot
p6197
tp6198
a(Vsuggest
p6199
Vadvcl
p6200
tp6201
a(Vwant
p6202
Vadvcl
p6203
tp6204
a(Vone
p6205
Vnsubj
p6206
tp6207
a(Vmust
p6208
Vaux
p6209
tp6210
a(Vsimply
p6211
Vadvmod
p6212
tp6213
a(Vobserve
p6214
g18
tp6215
a(g6196
Vccomp
p6216
tp6217
aa(lp6218
(Vable
p6219
Vxcomp
p6220
tp6221
a(Vto
p6222
Vaux
p6223
tp6224
a(Vobserve
p6225
g18
tp6226
a(Vworld
p6227
Vdobj
p6228
tp6229
aa(lp6230
(Vopportunity
p6231
Vinfmod
p6232
tp6233
a(Vwork
p6234
Vconj_and
p6235
tp6236
a(Vso
p6237
Vadvmod
p6238
tp6239
a(Vobserve
p6240
g18
tp6241
a(Vprocedure
p6242
Vdobj
p6243
tp6244
aa(lp6245
(Vtravel
p6246
Vxcomp
p6247
tp6248
a(Vto
p6249
Vaux
p6250
tp6251
a(Vobserve
p6252
g18
tp6253
a(Vmaterial
p6254
Vdobj
p6255
tp6256
aa(lp6257
(Vorganism
p6258
Vrcmod
p6259
tp6260
a(Vwe
p6261
Vnsubj
p6262
tp6263
a(Vobserve
p6264
g18
tp6265
a(Vpattern
p6266
Vdobj
p6267
tp6268
a(Vrelation
p6269
Vdobj
p6270
tp6271
a(Vprocess
p6272
Vprep_to
p6273
tp6274
aa(lp6275
(V1990
p6276
Vroot
p6277
tp6278
a(Vhowever
p6279
Vadvmod
p6280
tp6281
a(Vanalyst
p6282
Vnsubj
p6283
tp6284
a(Vobserve
p6285
g18
tp6286
a(Vtrifling
p6287
Vccomp
p6288
tp6289
aa(lp6290
(Vresponse
p6291
Vdobj
p6292
tp6293
a(g6291
Vrcmod
p6294
tp6295
a(Vwe
p6296
Vnsubj
p6297
tp6298
a(Vcan
p6299
Vaux
p6300
tp6301
a(Vobserve
p6302
g18
tp6303
a(Vprocess
p6304
Vprep_in
p6305
tp6306
aa(lp6307
(Vtend
p6308
Vxcomp
p6309
tp6310
a(Vto
p6311
Vaux
p6312
tp6313
a(Vobserve
p6314
g18
tp6315
a(Vcase
p6316
Vprep_in
p6317
tp6318
a(Vtriad
p6319
Vdobj
p6320
tp6321
aa(lp6322
(Venough
p6323
Vxcomp
p6324
tp6325
a(Vto
p6326
Vaux
p6327
tp6328
a(Vobserve
p6329
g18
tp6330
a(Vsource
p6331
Vprep_as
p6332
tp6333
aa(lp6334
(Vdetail
p6335
Vccomp
p6336
tp6337
a(Vto
p6338
Vaux
p6339
tp6340
a(Vobserve
p6341
g18
tp6342
a(Vaircraft
p6343
Vdobj
p6344
tp6345
a(Vwarn
p6346
Vconj_and
p6347
tp6348
aa(lp6349
(Vvoltage
p6350
Vroot
p6351
tp6352
a(Vand
p6353
Vcc
p6354
tp6355
a(Vtherefore
p6356
Vadvmod
p6357
tp6358
a(Vwe
p6359
Vnsubj
p6360
tp6361
a(Vobserve
p6362
g18
tp6363
a(Vplateau
p6364
Vdobj
p6365
tp6366
aa(lp6367
(Vwe
p6368
Vnsubj
p6369
tp6370
a(Vleave
p6371
Vconj_but
p6372
tp6373
a(Vobserve
p6374
g18
tp6375
a(Vthat
p6376
Vadvmod
p6377
tp6378
aa(lp6379
(Vable
p6380
Vxcomp
p6381
tp6382
a(Vto
p6383
Vaux
p6384
tp6385
a(Vobserve
p6386
g18
tp6387
a(Vspecies
p6388
Vdobj
p6389
tp6390
a(Vsituation
p6391
Vprep_in
p6392
tp6393
aa(lp6394
(Vwe
p6395
Vxsubj
p6396
tp6397
a(Vtend
p6398
Vxcomp
p6399
tp6400
a(Vto
p6401
Vaux
p6402
tp6403
a(Vobserve
p6404
g18
tp6405
a(Vinterest
p6406
Vdep
p6407
tp6408
a(Vconcern
p6409
Vdep
p6410
tp6411
aa(lp6412
(Vit
p6413
Vroot
p6414
tp6415
a(Vwhat
p6416
Vdep
p6417
tp6418
a(Vthey
p6419
Vnsubj
p6420
tp6421
a(Vobserve
p6422
g18
tp6423
a(Vhave
p6424
Vconj_and
p6425
tp6426
aa(lp6427
(Vdegree
p6428
Vprep_to
p6429
tp6430
a(g6428
Vrcmod
p6431
tp6432
a(Vmember
p6433
Vnsubj
p6434
tp6435
a(Vobserve
p6436
g18
tp6437
a(Vnorm
p6438
Vdobj
p6439
tp6440
aa(lp6441
(Vlow
p6442
Vadvcl
p6443
tp6444
a(g6442
Vxcomp
p6445
tp6446
a(Vfor
p6447
Vmark
p6448
tp6449
a(Vwe
p6450
Vnsubj
p6451
tp6452
a(Vto
p6453
Vaux
p6454
tp6455
a(Vobserve
p6456
g18
tp6457
a(Vthey
p6458
Vdobj
p6459
tp6460
a(Vdirectly
p6461
Vadvmod
p6462
tp6463
aa(lp6464
(Vhe
p6465
Vxsubj
p6466
tp6467
a(Vdo
p6468
Vxcomp
p6469
tp6470
a(Vto
p6471
Vaux
p6472
tp6473
a(Vobserve
p6474
g18
tp6475
a(Vadage
p6476
Vdobj
p6477
tp6478
aa(lp6479
(V12
p6480
Vdobj
p6481
tp6482
a(g6480
Vrcmod
p6483
tp6484
a(Vyou
p6485
Vnsubj
p6486
tp6487
a(Vwill
p6488
Vaux
p6489
tp6490
a(Vobserve
p6491
g18
tp6492
aa(lp6493
(Vjust
p6494
Vdep
p6495
tp6496
a(Vto
p6497
Vaux
p6498
tp6499
a(Vobserve
p6500
g18
tp6501
a(Vattentive
p6502
Vccomp
p6503
tp6504
a(Vsupply
p6505
Vconj_and
p6506
tp6507
aa(lp6508
(Vinterpretation
p6509
Vprepc_of
p6510
tp6511
a(Vwhat
p6512
Vdobj
p6513
tp6514
a(Vyou
p6515
Vnsubj
p6516
tp6517
a(Vobserve
p6518
g18
tp6519
a(Vexperience
p6520
Vconj_and
p6521
tp6522
aa(lp6523
(Vvary
p6524
Vroot
p6525
tp6526
a(Vif
p6527
Vmark
p6528
tp6529
a(Vwe
p6530
Vnsubj
p6531
tp6532
a(Vcould
p6533
Vaux
p6534
tp6535
a(Vobserve
p6536
g18
tp6537
a(Vsystem
p6538
Vdobj
p6539
tp6540
a(Vstar
p6541
Vprep_around
p6542
tp6543
a(g6524
Vdep
p6544
tp6545
aa(lp6546
(Vthey
p6547
Vnsubj
p6548
tp6549
a(Vsort
p6550
Vconj_and
p6551
tp6552
a(Vobserve
p6553
g18
tp6554
a(Vsymmetry
p6555
Vdobj
p6556
tp6557
a(Vcollect
p6558
Vconj_and
p6559
tp6560
a(Varrange
p6561
Vconj_and
p6562
tp6563
a(Vabsorb
p6564
Vadvcl
p6565
tp6566
aa(lp6567
(Vopportunity
p6568
Vinfmod
p6569
tp6570
a(Vto
p6571
Vaux
p6572
tp6573
a(Vobserve
p6574
g18
tp6575
aa(lp6576
(Vfailure
p6577
Vinfmod
p6578
tp6579
a(Vto
p6580
Vaux
p6581
tp6582
a(Vobserve
p6583
g18
tp6584
a(Vstandard
p6585
Vdobj
p6586
tp6587
a(Vroutine
p6588
Vdobj
p6589
tp6590
aa(lp6591
(Vgreater
p6592
Vroot
p6593
tp6594
a(Vdetector
p6595
Vnsubj
p6596
tp6597
a(Vwill
p6598
Vaux
p6599
tp6600
a(Vobserve
p6601
g18
tp6602
a(Vneutrino
p6603
Vdobj
p6604
tp6605
a(Vsource
p6606
Vprep_from
p6607
tp6608
a(Venergy
p6609
Vprep_with
p6610
tp6611
aa(lp6612
(Vschool
p6613
Vnsubj
p6614
tp6615
a(g6613
Vrcmod
p6616
tp6617
a(Vobserve
p6618
g18
tp6619
a(Vprinciple
p6620
Vdobj
p6621
tp6622
aa(lp6623
(Vcell
p6624
Vinfmod
p6625
tp6626
a(g6624
Vrcmod
p6627
tp6628
a(Vit
p6629
Vnsubj
p6630
tp6631
a(Vdisaggregate
p6632
Vconj_and
p6633
tp6634
a(Vobserve
p6635
g18
tp6636
a(Vculture
p6637
Vdobj
p6638
tp6639
a(Vinterval
p6640
Vprep_at
p6641
tp6642
aa(lp6643
(Vto
p6644
Vaux
p6645
tp6646
a(Vobserve
p6647
g18
tp6648
a(Vdecrease
p6649
Vccomp
p6650
tp6651
a(Vincrease
p6652
Vdep
p6653
tp6654
aa(lp6655
(VI
p6656
Vxsubj
p6657
tp6658
a(Vwish
p6659
Vxcomp
p6660
tp6661
a(Vto
p6662
Vaux
p6663
tp6664
a(Vobserve
p6665
g18
tp6666
a(Vsee
p6667
Vccomp
p6668
tp6669
aa(lp6670
(Vsomething
p6671
Vdobj
p6672
tp6673
a(g6671
Vrcmod
p6674
tp6675
a(Vyou
p6676
Vnsubj
p6677
tp6678
a(Vcan
p6679
Vaux
p6680
tp6681
a(Vobserve
p6682
g18
tp6683
a(Vyourself
p6684
Vprep_for
p6685
tp6686
a(Vrestaurant
p6687
Vprep_in
p6688
tp6689
aa(lp6690
(Vthereof
p6691
Vroot
p6692
tp6693
a(VServices
p6694
Vnsubj
p6695
tp6696
a(Vto
p6697
Vaux
p6698
tp6699
a(Vobserve
p6700
g18
tp6701
a(Vperform
p6702
Vconj_and
p6703
tp6704
a(Vobligation
p6705
Vdobj
p6706
tp6707
aa(lp6708
(Vbuilding
p6709
Vroot
p6710
tp6711
a(VOpportunity
p6712
Vnsubj
p6713
tp6714
a(Vto
p6715
Vaux
p6716
tp6717
a(Vobserve
p6718
g18
tp6719
a(Vcraftspeople
p6720
Vdobj
p6721
tp6722
a(Vwork
p6723
Vprep_at
p6724
tp6725
a(Vbeautifully
p6726
Vadvmod
p6727
tp6728
a(g6726
Vpcomp
p6729
tp6730
a(Vfarmhouse
p6731
Vprep_in
p6732
tp6733
aa(lp6734
(Vit
p6735
Vxsubj
p6736
tp6737
a(Vgalling
p6738
Vxcomp
p6739
tp6740
a(Vto
p6741
Vaux
p6742
tp6743
a(Vobserve
p6744
g18
tp6745
a(Vchange
p6746
Vdobj
p6747
tp6748
a(Vdemeanor
p6749
Vprep_in
p6750
tp6751
aa(lp6752
(V1
p6753
Vdep
p6754
tp6755
a(Vand
p6756
Vadvmod
p6757
tp6758
a(Vwe
p6759
Vnsubj
p6760
tp6761
a(Voften
p6762
Vadvmod
p6763
tp6764
a(Vobserve
p6765
g18
tp6766
a(Vpattern
p6767
Vdobj
p6768
tp6769
a(Veach
p6770
Vdobj
p6771
tp6772
a(Vdecrease
p6773
Vdep
p6774
tp6775
aa(lp6776
(Vstress
p6777
Vxcomp
p6778
tp6779
a(Vto
p6780
Vaux
p6781
tp6782
a(Vobserve
p6783
g18
tp6784
a(Vrule
p6785
Vdobj
p6786
tp6787
aa(lp6788
(Venable
p6789
Vxcomp
p6790
tp6791
a(VI
p6792
Vnsubj
p6793
tp6794
a(Vto
p6795
Vaux
p6796
tp6797
a(Vobserve
p6798
g18
tp6799
a(Vbehavior
p6800
Vdobj
p6801
tp6802
a(Vresident
p6803
Vprep_as
p6804
tp6805
aa(lp6806
(Vrelate
p6807
Vccomp
p6808
tp6809
a(Vthat
p6810
Vmark
p6811
tp6812
a(Vwe
p6813
Vnsubj
p6814
tp6815
a(Vobserve
p6816
g18
tp6817
aa(lp6818
(Vbe
p6819
Vccomp
p6820
tp6821
a(Vto
p6822
Vaux
p6823
tp6824
a(Vobserve
p6825
g18
tp6826
a(Vholding
p6827
Vdobj
p6828
tp6829
a(Vconduct
p6830
Vdobj
p6831
tp6832
a(VKorea
p6833
Vprep_throughout
p6834
tp6835
a(Vadvise
p6836
Vconj_and
p6837
tp6838
aa(lp6839
(Vexpress
p6840
Vparataxis
p6841
tp6842
a(Vindeed
p6843
Vadvmod
p6844
tp6845
a(Vwe
p6846
Vnsubj
p6847
tp6848
a(Vcan
p6849
Vaux
p6850
tp6851
a(Vonly
p6852
Vadvmod
p6853
tp6854
a(Vobserve
p6855
g18
tp6856
a(Vp
p6857
Vdobj
p6858
tp6859
a(Vt
p6860
Vdobj
p6861
tp6862
a(Vm
p6863
Vdobj
p6864
tp6865
a(Vso
p6866
Vadvmod
p6867
tp6868
a(Vcalculate
p6869
Vparataxis
p6870
tp6871
aa(lp6872
(Vfailure
p6873
Vinfmod
p6874
tp6875
a(Vto
p6876
Vaux
p6877
tp6878
a(Vobserve
p6879
g18
tp6880
a(Vremark
p6881
Vccomp
p6882
tp6883
aa(lp6884
(Vtoday
p6885
Vdobj
p6886
tp6887
a(g6885
Vrcmod
p6888
tp6889
a(Vwe
p6890
Vnsubj
p6891
tp6892
a(Vobserve
p6893
g18
tp6894
a(Vellipsis
p6895
Vxcomp
p6896
tp6897
aa(lp6898
(Vhe
p6899
Vxsubj
p6900
tp6901
a(Vbind
p6902
Vxcomp
p6903
tp6904
a(Vto
p6905
Vaux
p6906
tp6907
a(Vobserve
p6908
g18
tp6909
a(Vdecree
p6910
Vdobj
p6911
tp6912
a(Vrelease
p6913
Vadvcl
p6914
tp6915
aa(lp6916
(VI
p6917
Vxsubj
p6918
tp6919
a(Vbe
p6920
Vxcomp
p6921
tp6922
a(Vto
p6923
Vaux
p6924
tp6925
a(Vobserve
p6926
g18
tp6927
a(Vbe
p6928
Vccomp
p6929
tp6930
aa(lp6931
(Vearlier
p6932
Vccomp
p6933
tp6934
a(Vthat
p6935
Vmark
p6936
tp6937
a(Vworker
p6938
Vnsubj
p6939
tp6940
a(Vdo
p6941
Vaux
p6942
tp6943
a(Vsometimes
p6944
Vadvmod
p6945
tp6946
a(Vobserve
p6947
g18
tp6948
a(Vinterview
p6949
Vdobj
p6950
tp6951
aa(lp6952
(Vthey
p6953
Vxsubj
p6954
tp6955
a(Vfail
p6956
Vxcomp
p6957
tp6958
a(Vto
p6959
Vaux
p6960
tp6961
a(Vobserve
p6962
g18
tp6963
a(Vrule
p6964
Vdobj
p6965
tp6966
aa(lp6967
(Vamaze
p6968
Vdep
p6969
tp6970
a(Vyou
p6971
Vnsubj
p6972
tp6973
a(Vcan
p6974
Vaux
p6975
tp6976
a(Vobserve
p6977
g18
tp6978
a(Vdevelopment
p6979
Vdobj
p6980
tp6981
a(Vday
p6982
Vprep_by
p6983
tp6984
aa(lp6985
(Vyou
p6986
Vxsubj
p6987
tp6988
a(Vgo
p6989
Vxcomp
p6990
tp6991
a(Vto
p6992
Vaux
p6993
tp6994
a(Vobserve
p6995
g18
tp6996
a(Vgo
p6997
Vccomp
p6998
tp6999
aa(lp7000
(Vexplanation
p7001
Vprepc_of
p7002
tp7003
a(Vwhy
p7004
Vadvmod
p7005
tp7006
a(Vwe
p7007
Vnsubj
p7008
tp7009
a(Vobserve
p7010
g18
tp7011
a(Varrow
p7012
Vprep_that
p7013
tp7014
a(Vdirection
p7015
Vprep_in
p7016
tp7017
aa(lp7018
(Vrequire
p7019
Vxcomp
p7020
tp7021
a(Vthey
p7022
Vnsubj
p7023
tp7024
a(Vto
p7025
Vaux
p7026
tp7027
a(Vobserve
p7028
g18
tp7029
a(Vteaching
p7030
Vdobj
p7031
tp7032
aa(lp7033
(Vboat
p7034
Vinfmod
p7035
tp7036
a(Vto
p7037
Vaux
p7038
tp7039
a(Vobserve
p7040
g18
tp7041
a(Vlife
p7042
Vdobj
p7043
tp7044
aa(lp7045
(Vtremble
p7046
Vdep
p7047
tp7048
a(Vlean
p7049
Vconj_but
p7050
tp7051
a(VI
p7052
Vnsubj
p7053
tp7054
a(Vmust
p7055
Vaux
p7056
tp7057
a(Vobserve
p7058
g18
tp7059
a(Vallow
p7060
Vccomp
p7061
tp7062
aa(lp7063
(Vtest
p7064
Vxsubj
p7065
tp7066
a(Vbe
p7067
Vxcomp
p7068
tp7069
a(Vto
p7070
Vaux
p7071
tp7072
a(Vobserve
p7073
g18
tp7074
a(Vrelationship
p7075
Vdobj
p7076
tp7077
aa(lp7078
(Vbehavior
p7079
Vdobj
p7080
tp7081
a(g7079
Vrcmod
p7082
tp7083
a(Vwe
p7084
Vnsubj
p7085
tp7086
a(Vcan
p7087
Vaux
p7088
tp7089
a(Vobserve
p7090
g18
tp7091
a(Vcohesion
p7092
Vprep_in
p7093
tp7094
aa(lp7095
(Vguild
p7096
Vmark
p7097
tp7098
a(Vstate
p7099
Vccomp
p7100
tp7101
a(Vtribunal
p7102
Vnsubj
p7103
tp7104
a(Vmust
p7105
Vaux
p7106
tp7107
a(Vobserve
p7108
g18
tp7109
a(Vprinciple
p7110
Vdobj
p7111
tp7112
aa(lp7113
(Vhe
p7114
Vxsubj
p7115
tp7116
a(Vuse
p7117
Vxcomp
p7118
tp7119
a(Vto
p7120
Vaux
p7121
tp7122
a(Vobserve
p7123
g18
tp7124
a(Vindirectly
p7125
Vadvmod
p7126
tp7127
a(Vbe
p7128
Vccomp
p7129
tp7130
aa(lp7131
(Vwork
p7132
Vroot
p7133
tp7134
a(Vwe
p7135
Vnsubj
p7136
tp7137
a(Vcould
p7138
Vaux
p7139
tp7140
a(Veven
p7141
Vadvmod
p7142
tp7143
a(Vobserve
p7144
g18
tp7145
a(Vclinic
p7146
Vdobj
p7147
tp7148
a(Vsee
p7149
Vxcomp
p7150
tp7151
aa(lp7152
(Vbe
p7153
Vccomp
p7154
tp7155
a(Vdetect
p7156
Vconj_and
p7157
tp7158
a(Vto
p7159
Vaux
p7160
tp7161
a(Vobserve
p7162
g18
tp7163
a(Veffect
p7164
Vdobj
p7165
tp7166
a(Vchange
p7167
Vprep_on
p7168
tp7169
aa(lp7170
(Vbehavior
p7171
Vroot
p7172
tp7173
a(Vto
p7174
Vaux
p7175
tp7176
a(Vobserve
p7177
g18
tp7178
a(Vuse
p7179
Vdobj
p7180
tp7181
a(Vrecord
p7182
Vprepc_by
p7183
tp7184
aa(lp7185
(Vgo
p7186
Vxcomp
p7187
tp7188
a(Vto
p7189
Vaux
p7190
tp7191
a(Vobserve
p7192
g18
tp7193
a(Vbehavior
p7194
Vdobj
p7195
tp7196
aa(lp7197
(VMahmoud
p7198
Vnsubj
p7199
tp7200
a(Vcovenant
p7201
Vconj_and
p7202
tp7203
a(Vobserve
p7204
g18
tp7205
a(Vcovenant
p7206
Vdobj
p7207
tp7208
a(Vresidue
p7209
Vprep_during
p7210
tp7211
aa(lp7212
(Vsymptom
p7213
Vrcmod
p7214
tp7215
a(Vfeel
p7216
Vconj_and
p7217
tp7218
a(Vdoctor
p7219
Vnsubj
p7220
tp7221
a(Vcan
p7222
Vaux
p7223
tp7224
a(Vobserve
p7225
g18
tp7226
aa(lp7227
(Vrecognize
p7228
Vadvcl
p7229
tp7230
a(Veven
p7231
Vadvmod
p7232
tp7233
a(Vthough
p7234
Vmark
p7235
tp7236
a(Vthey
p7237
Vnsubj
p7238
tp7239
a(Vdo
p7240
Vaux
p7241
tp7242
a(Vnot
p7243
Vneg
p7244
tp7245
a(Vobserve
p7246
g18
tp7247
a(Vprice
p7248
Vdobj
p7249
tp7250
a(Vown
p7251
Vprep_than
p7252
tp7253
aa(lp7254
(Vagree
p7255
Vccomp
p7256
tp7257
a(Vto
p7258
Vaux
p7259
tp7260
a(Vobserve
p7261
g18
tp7262
a(Vmoratorium
p7263
Vdobj
p7264
tp7265
a(Vresume
p7266
Vconj_and
p7267
tp7268
aa(lp7269
(Vthey
p7270
Vxsubj
p7271
tp7272
a(Vdifficult
p7273
Vxcomp
p7274
tp7275
a(Vto
p7276
Vaux
p7277
tp7278
a(Vobserve
p7279
g18
tp7280
aa(lp7281
(Vexplain
p7282
Vroot
p7283
tp7284
a(VI
p7285
Vnsubj
p7286
tp7287
a(Vobserve
p7288
g18
tp7289
a(Vanything
p7290
Vdobj
p7291
tp7292
aa(lp7293
(Vmeeting
p7294
Vxsubj
p7295
tp7296
a(Vagree
p7297
Vxcomp
p7298
tp7299
a(Vto
p7300
Vaux
p7301
tp7302
a(Vobserve
p7303
g18
tp7304
a(Vlaw
p7305
Vdobj
p7306
tp7307
aa(lp7308
(Vsmall
p7309
Vroot
p7310
tp7311
a(Vwe
p7312
Vnsubj
p7313
tp7314
a(Vcan
p7315
Vaux
p7316
tp7317
a(Vobserve
p7318
g18
tp7319
a(Vvary
p7320
Vccomp
p7321
tp7322
aa(lp7323
(Vif
p7324
Vmark
p7325
tp7326
a(Vchild
p7327
Vnsubj
p7328
tp7329
a(Vobserve
p7330
g18
tp7331
a(Vprinciple
p7332
Vdobj
p7333
tp7334
a(Vassume
p7335
Vadvcl
p7336
tp7337
aa(lp7338
(Vguile
p7339
Vxsubj
p7340
tp7341
a(Vbe
p7342
Vxcomp
p7343
tp7344
a(Vto
p7345
Vaux
p7346
tp7347
a(Vobserve
p7348
g18
tp7349
a(Vtap
p7350
Vccomp
p7351
tp7352
aa(lp7353
(Vtransferee
p7354
Vdep
p7355
tp7356
a(Vperform
p7357
Vconj_and
p7358
tp7359
a(Vobserve
p7360
g18
tp7361
aa(lp7362
(Vit
p7363
Vxsubj
p7364
tp7365
a(Vinteresting
p7366
Vxcomp
p7367
tp7368
a(Vto
p7369
Vaux
p7370
tp7371
a(Vobserve
p7372
g18
tp7373
a(Vreproduce
p7374
Vccomp
p7375
tp7376
aa(lp7377
(Vwe
p7378
Vxsubj
p7379
tp7380
a(Vneed
p7381
Vxcomp
p7382
tp7383
a(Vto
p7384
Vaux
p7385
tp7386
a(Vobserve
p7387
g18
tp7388
a(Verm
p7389
Vdobj
p7390
tp7391
aa(lp7392
(Vissuesit
p7393
Vxsubj
p7394
tp7395
a(Vessential
p7396
Vxcomp
p7397
tp7398
a(Vto
p7399
Vaux
p7400
tp7401
a(Vobserve
p7402
g18
tp7403
a(Vguideline
p7404
Vdobj
p7405
tp7406
aa(lp7407
(Vbe
p7408
Vxcomp
p7409
tp7410
a(Vexamine
p7411
Vconj_and
p7412
tp7413
a(Vobserve
p7414
g18
tp7415
a(Vpositive
p7416
Vccomp
p7417
tp7418
a(Vnegative
p7419
Vccomp
p7420
tp7421
aa(lp7422
(Vit
p7423
Vxsubj
p7424
tp7425
a(Vimportant
p7426
Vxcomp
p7427
tp7428
a(Vto
p7429
Vaux
p7430
tp7431
a(Vobserve
p7432
g18
tp7433
a(Vsame
p7434
Vccomp
p7435
tp7436
aa(lp7437
(VI
p7438
Vxsubj
p7439
tp7440
a(Vpause
p7441
Vxcomp
p7442
tp7443
a(Vto
p7444
Vaux
p7445
tp7446
a(Vobserve
p7447
g18
tp7448
a(Vstage
p7449
Vprep_at
p7450
tp7451
a(Vconcern
p7452
Vccomp
p7453
tp7454
aa(lp7455
(Vlearn
p7456
Vxcomp
p7457
tp7458
a(Vto
p7459
Vaux
p7460
tp7461
a(Vobserve
p7462
g18
tp7463
aa(lp7464
(Vto
p7465
Vaux
p7466
tp7467
a(Vobserve
p7468
g18
tp7469
a(Vsearch
p7470
Vxcomp
p7471
tp7472
a(Vprovide
p7473
Vcsubj
p7474
tp7475
aa(lp7476
(VI
p7477
Vxsubj
p7478
tp7479
a(Vbe
p7480
Vxcomp
p7481
tp7482
a(Vto
p7483
Vaux
p7484
tp7485
a(Vobserve
p7486
g18
tp7487
a(Vreport
p7488
Vconj_and
p7489
tp7490
a(Vknow
p7491
Vccomp
p7492
tp7493
a(Vget
p7494
Vconj_and
p7495
tp7496
a(Vfall
p7497
Vconj_and
p7498
tp7499
aa(lp7500
(Vit
p7501
Vxsubj
p7502
tp7503
a(Vinteresting
p7504
Vxcomp
p7505
tp7506
a(Vto
p7507
Vaux
p7508
tp7509
a(Vobserve
p7510
g18
tp7511
a(Vall
p7512
Vccomp
p7513
tp7514
aa(lp7515
(Vone
p7516
Vccomp
p7517
tp7518
a(Vthat
p7519
Vmark
p7520
tp7521
a(Vwe
p7522
Vnsubj
p7523
tp7524
a(Vobserve
p7525
g18
tp7526
a(Vhistory
p7527
Vprep_as
p7528
tp7529
aa(lp7530
(Vit
p7531
Vxsubj
p7532
tp7533
a(Veasy
p7534
Vxcomp
p7535
tp7536
a(Vto
p7537
Vaux
p7538
tp7539
a(Vobserve
p7540
g18
tp7541
a(Vgo
p7542
Vccomp
p7543
tp7544
aa(lp7545
(V-1
p7546
Vroot
p7547
tp7548
a(Vinstead
p7549
Vadvmod
p7550
tp7551
a(Vwe
p7552
Vnsubj
p7553
tp7554
a(Vobserve
p7555
g18
tp7556
a(Vband
p7557
Vdobj
p7558
tp7559
a(Vone
p7560
Vdobj
p7561
tp7562
a(Vcm
p7563
Vdobj
p7564
tp7565
aa(lp7566
(Vvow
p7567
Vccomp
p7568
tp7569
a(Vto
p7570
Vaux
p7571
tp7572
a(Vobserve
p7573
g18
tp7574
a(VConstitution
p7575
Vdobj
p7576
tp7577
a(Vserve
p7578
Vconj_and
p7579
tp7580
aa(lp7581
(Vgive
p7582
Vpcomp
p7583
tp7584
a(Vthat
p7585
Vmark
p7586
tp7587
a(Vcourse
p7588
Vnsubj
p7589
tp7590
a(Valmost
p7591
Vadvmod
p7592
tp7593
a(Vinvariably
p7594
Vadvmod
p7595
tp7596
a(Vobserve
p7597
g18
tp7598
a(Vboundary
p7599
Vdobj
p7600
tp7601
aa(lp7602
(Vswift
p7603
Vccomp
p7604
tp7605
a(Vthat
p7606
Vmark
p7607
tp7608
a(VRuth
p7609
Vnsubj
p7610
tp7611
a(Vdo
p7612
Vaux
p7613
tp7614
a(Vnot
p7615
Vneg
p7616
tp7617
a(Vobserve
p7618
g18
tp7619
a(Vit
p7620
Vdobj
p7621
tp7622
aa(lp7623
(Vnotion
p7624
Vxsubj
p7625
tp7626
a(Vfail
p7627
Vxcomp
p7628
tp7629
a(Vto
p7630
Vaux
p7631
tp7632
a(Vobserve
p7633
g18
tp7634
a(Vanything
p7635
Vdobj
p7636
tp7637
a(Vaccurately
p7638
Vadvmod
p7639
tp7640
aa(lp7641
(Vsolicitor
p7642
Vroot
p7643
tp7644
a(Vfinally
p7645
Vadvmod
p7646
tp7647
a(VI
p7648
Vnsubj
p7649
tp7650
a(Vwould
p7651
Vaux
p7652
tp7653
a(Vobserve
p7654
g18
tp7655
a(Vbe
p7656
Vccomp
p7657
tp7658
a(Vacquiesce
p7659
Vconj_and
p7660
tp7661
aa(lp7662
(Vthey
p7663
Vxsubj
p7664
tp7665
a(Vdifficult
p7666
Vxcomp
p7667
tp7668
a(Vto
p7669
Vaux
p7670
tp7671
a(Vobserve
p7672
g18
tp7673
a(Vprovide
p7674
Vxcomp
p7675
tp7676
aa(lp7677
(Vfalsehood
p7678
Vparataxis
p7679
tp7680
a(VI
p7681
Vnsubj
p7682
tp7683
a(Vwould
p7684
Vaux
p7685
tp7686
a(Vonly
p7687
Vadvmod
p7688
tp7689
a(Vobserve
p7690
g18
tp7691
a(Vqualify
p7692
Vccomp
p7693
tp7694
aa(lp7695
(Vsince
p7696
Vmark
p7697
tp7698
a(Vone
p7699
Vnsubj
p7700
tp7701
a(Vdo
p7702
Vaux
p7703
tp7704
a(Vnot
p7705
Vneg
p7706
tp7707
a(Vobserve
p7708
g18
tp7709
a(Vattribute
p7710
Vdobj
p7711
tp7712
a(Vunexplained
p7713
Vadvcl
p7714
tp7715
aa(lp7716
(Vpoint
p7717
Vinfmod
p7718
tp7719
a(Vto
p7720
Vaux
p7721
tp7722
a(Vobserve
p7723
g18
tp7724
a(Vground
p7725
Vdobj
p7726
tp7727
aa(lp7728
(Vcourt
p7729
Vxsubj
p7730
tp7731
a(Vask
p7732
Vxcomp
p7733
tp7734
a(Vto
p7735
Vaux
p7736
tp7737
a(Vobserve
p7738
g18
tp7739
a(Vreaction
p7740
Vdobj
p7741
tp7742
a(Vdemeanor
p7743
Vdobj
p7744
tp7745
aa(lp7746
(Vallow
p7747
Vxcomp
p7748
tp7749
a(Vastronomer
p7750
Vnsubj
p7751
tp7752
a(Vto
p7753
Vaux
p7754
tp7755
a(Vobserve
p7756
g18
tp7757
a(Vobject
p7758
Vdobj
p7759
tp7760
aa(lp7761
(Vweek
p7762
Vroot
p7763
tp7764
a(Vteacher
p7765
Vnsubj
p7766
tp7767
a(Vwill
p7768
Vaux
p7769
tp7770
a(Vobserve
p7771
g18
tp7772
a(Vhopefully
p7773
Vdep
p7774
tp7775
a(Vparticipate
p7776
Vconj_and
p7777
tp7778
aa(lp7779
(Vstaff
p7780
Vxsubj
p7781
tp7782
a(Vask
p7783
Vxcomp
p7784
tp7785
a(Vto
p7786
Vaux
p7787
tp7788
a(Vobserve
p7789
g18
tp7790
a(Vprocedure
p7791
Vdobj
p7792
tp7793
aa(lp7794
(Vphase
p7795
Vroot
p7796
tp7797
a(Vand
p7798
Vcc
p7799
tp7800
a(Vreason
p7801
Vnsubj
p7802
tp7803
a(Vwe
p7804
Vadvmod
p7805
tp7806
a(Vobserve
p7807
g18
tp7808
a(Vbe
p7809
Vccomp
p7810
tp7811
aa(lp7812
(Vopportunity
p7813
Vinfmod
p7814
tp7815
a(Vto
p7816
Vaux
p7817
tp7818
a(Vobserve
p7819
g18
tp7820
a(VJohn
p7821
Vdobj
p7822
tp7823
a(VOliver
p7824
Vdobj
p7825
tp7826
a(Vtogether
p7827
Vadvmod
p7828
tp7829
aa(lp7830
(Vmenagerie
p7831
Vxsubj
p7832
tp7833
a(Vprovide
p7834
Vxcomp
p7835
tp7836
a(Vto
p7837
Vaux
p7838
tp7839
a(Vobserve
p7840
g18
tp7841
a(Vsubject
p7842
Vdobj
p7843
tp7844
a(Valive
p7845
Vacomp
p7846
tp7847
a(Vkick
p7848
Vacomp
p7849
tp7850
aa(lp7851
(Vthing
p7852
Vinfmod
p7853
tp7854
a(Vto
p7855
Vaux
p7856
tp7857
a(Vobserve
p7858
g18
tp7859
aa(lp7860
(Vrule
p7861
Vinfmod
p7862
tp7863
a(Vto
p7864
Vaux
p7865
tp7866
a(Vobserve
p7867
g18
tp7868
aa(lp7869
(Vrefer
p7870
Vconj_but
p7871
tp7872
a(Vhe
p7873
Vnsubj
p7874
tp7875
a(Vdo
p7876
Vaux
p7877
tp7878
a(Vobserve
p7879
g18
tp7880
a(Vseem
p7881
Vccomp
p7882
tp7883
aa(lp7884
(Vbind
p7885
Vdep
p7886
tp7887
a(Vto
p7888
Vaux
p7889
tp7890
a(Vobserve
p7891
g18
tp7892
a(Vneutrality
p7893
Vdobj
p7894
tp7895
a(Vevent
p7896
Vprep_in
p7897
tp7898
a(Vrefrain
p7899
Vconj_and
p7900
tp7901
aa(lp7902
(Vlayman
p7903
Vxsubj
p7904
tp7905
a(Vpromise
p7906
Vxcomp
p7907
tp7908
a(Vto
p7909
Vaux
p7910
tp7911
a(Vobserve
p7912
g18
tp7913
a(Vit
p7914
Vdobj
p7915
tp7916
aa(lp7917
(Vbe
p7918
Vccomp
p7919
tp7920
a(Vscientist
p7921
Vnsubj
p7922
tp7923
a(Vshould
p7924
Vaux
p7925
tp7926
a(Vobserve
p7927
g18
tp7928
a(Vfirst
p7929
Vadvmod
p7930
tp7931
a(Vpostulate
p7932
Vconj_and
p7933
tp7934
a(Vtreat
p7935
Vconj_and
p7936
tp7937
aa(lp7938
(Vwe
p7939
Vxsubj
p7940
tp7941
a(Vprivileged
p7942
Vxcomp
p7943
tp7944
a(Vto
p7945
Vaux
p7946
tp7947
a(Vobserve
p7948
g18
tp7949
aa(lp7950
(Vyou
p7951
Vxsubj
p7952
tp7953
a(Vwant
p7954
Vxcomp
p7955
tp7956
a(Vto
p7957
Vaux
p7958
tp7959
a(Vobserve
p7960
g18
tp7961
a(Vthey
p7962
Vdobj
p7963
tp7964
a(Vfade
p7965
Vprep_as
p7966
tp7967
aa(lp7968
(Vgo
p7969
Vdep
p7970
tp7971
a(Vto
p7972
Vaux
p7973
tp7974
a(Vobserve
p7975
g18
tp7976
a(Vtransit
p7977
Vdobj
p7978
tp7979
a(Vsuggest
p7980
Vconj_and
p7981
tp7982
aa(lp7983
(V1963
p7984
Vnsubj
p7985
tp7986
a(Vobserve
p7987
g18
tp7988
a(Vmanagement
p7989
Vprep_that
p7990
tp7991
a(Vdeal
p7992
Vdep
p7993
tp7994
aa(lp7995
(Vshe
p7996
Vxsubj
p7997
tp7998
a(Vrefuse
p7999
Vxcomp
p8000
tp8001
a(Vto
p8002
Vaux
p8003
tp8004
a(Vobserve
p8005
g18
tp8006
a(Vholiday
p8007
Vdobj
p8008
tp8009
a(VOctober
p8010
Vtmod
p8011
tp8012
a(Vdate
p8013
Vdobj
p8014
tp8015
aa(lp8016
(Vevent
p8017
Vprep_in
p8018
tp8019
a(g8017
Vrcmod
p8020
tp8021
a(Vwe
p8022
Vnsubj
p8023
tp8024
a(Vobserve
p8025
g18
tp8026
a(Vparticipate
p8027
Vconj_or
p8028
tp8029
aa(lp8030
(Vastronomically
p8031
Vroot
p8032
tp8033
a(Vtime
p8034
Vprep_at
p8035
tp8036
a(Vira
p8037
Vnsubj
p8038
tp8039
a(Vwill
p8040
Vaux
p8041
tp8042
a(Vobserve
p8043
g18
tp8044
a(Vobject
p8045
Vdobj
p8046
tp8047
aa(lp8048
(Vtime
p8049
Vtmod
p8050
tp8051
a(g8049
Vrcmod
p8052
tp8053
a(Vwhen
p8054
Vadvmod
p8055
tp8056
a(Vwe
p8057
Vnsubj
p8058
tp8059
a(Vobserve
p8060
g18
tp8061
a(Vobject
p8062
Vdobj
p8063
tp8064
a(Vaway
p8065
Vadvmod
p8066
tp8067
a(Vobserve
p8068
Vdep
p8069
tp8070
aa(lp8071
(Vyear
p8072
Vrcmod
p8073
tp8074
a(Vwe
p8075
Vnsubj
p8076
tp8077
a(Vobserve
p8078
g18
tp8079
a(Vchange
p8080
Vdobj
p8081
tp8082
aa(lp8083
(Vfail
p8084
Vxcomp
p8085
tp8086
a(Vto
p8087
Vaux
p8088
tp8089
a(Vobserve
p8090
g18
tp8091
a(Vrequirement
p8092
Vdobj
p8093
tp8094
a(Vvarious
p8095
Vprep_to
p8096
tp8097
aa(lp8098
(Vrestaurant
p8099
Vroot
p8100
tp8101
a(Vclass
p8102
Vnsubj
p8103
tp8104
a(Vcould
p8105
Vaux
p8106
tp8107
a(Vobserve
p8108
g18
tp8109
a(Vpractice
p8110
Vdobj
p8111
tp8112
aa(lp8113
(Vuse
p8114
Vparataxis
p8115
tp8116
a(VI
p8117
Vnsubj
p8118
tp8119
a(Vobserve
p8120
g18
tp8121
a(Vstrive
p8122
Vccomp
p8123
tp8124
a(Vphilologist
p8125
Vccomp
p8126
tp8127
aa(lp8128
(Vapparent
p8129
Vadvcl
p8130
tp8131
a(Vwhen
p8132
Vadvmod
p8133
tp8134
a(Vwe
p8135
Vnsubj
p8136
tp8137
a(Vobserve
p8138
g18
tp8139
a(Vuse
p8140
Vccomp
p8141
tp8142
aa(lp8143
(Vopportunity
p8144
Vinfmod
p8145
tp8146
a(Vto
p8147
Vaux
p8148
tp8149
a(Vobserve
p8150
g18
tp8151
a(Vuse
p8152
Vdobj
p8153
tp8154
aa(lp8155
(Vperceive
p8156
Vroot
p8157
tp8158
a(Vthus
p8159
Vadvmod
p8160
tp8161
a(Vobserve
p8162
g18
tp8163
a(Vhave
p8164
Vdep
p8165
tp8166
a(Vdenote
p8167
Vdep
p8168
tp8169
a(g8156
Vdep
p8170
tp8171
aa(lp8172
(Vlocus
p8173
Vroot
p8174
tp8175
a(Vcan
p8176
Vccomp
p8177
tp8178
a(Veven
p8179
Vadvmod
p8180
tp8181
a(Vobserve
p8182
g18
tp8183
a(Vamplification
p8184
Vnsubj
p8185
tp8186
aa(lp8187
(Vnoble
p8188
Vxsubj
p8189
tp8190
a(Vpromise
p8191
Vxcomp
p8192
tp8193
a(Vto
p8194
Vaux
p8195
tp8196
a(Vobserve
p8197
g18
tp8198
aa(lp8199
(Vit
p8200
Vxsubj
p8201
tp8202
a(Vimportant
p8203
Vxcomp
p8204
tp8205
a(Vto
p8206
Vaux
p8207
tp8208
a(Vobserve
p8209
g18
tp8210
a(Vunit
p8211
Vdobj
p8212
tp8213
aa(lp8214
(Vchange
p8215
Vprep_of
p8216
tp8217
a(Vbehavior
p8218
Vconj_and
p8219
tp8220
a(g8218
Vinfmod
p8221
tp8222
a(Vindicate
p8223
Vnsubj
p8224
tp8225
a(Vto
p8226
Vaux
p8227
tp8228
a(Vobserve
p8229
g18
tp8230
a(Vevidence
p8231
Vdobj
p8232
tp8233
aa(lp8234
(Vdrill
p8235
Vxcomp
p8236
tp8237
a(Vto
p8238
Vaux
p8239
tp8240
a(Vobserve
p8241
g18
tp8242
a(Vchange
p8243
Vdobj
p8244
tp8245
a(Vzone
p8246
Vprep_in
p8247
tp8248
aa(lp8249
(Vaccept
p8250
Vccomp
p8251
tp8252
a(Vwe
p8253
Vnsubj
p8254
tp8255
a(Vopen
p8256
Vconj_and
p8257
tp8258
a(Vobserve
p8259
g18
tp8260
a(Veverything
p8261
Vdobj
p8262
tp8263
a(Vwe
p8264
Vprep_around
p8265
tp8266
a(Vpick
p8267
Vpartmod
p8268
tp8269
aa(lp8270
(Vprecaution
p8271
Vroot
p8272
tp8273
a(Vlight
p8274
Vprep_in
p8275
tp8276
a(Vanybody
p8277
Vnsubj
p8278
tp8279
a(Vshould
p8280
Vaux
p8281
tp8282
a(Vobserve
p8283
g18
tp8284
a(g8271
Vdobj
p8285
tp8286
aa(lp8287
(Vlead
p8288
Vxcomp
p8289
tp8290
a(VI
p8291
Vnsubj
p8292
tp8293
a(Vto
p8294
Vaux
p8295
tp8296
a(Vobserve
p8297
g18
tp8298
a(Velsewhere
p8299
Vdobj
p8300
tp8301
aa(lp8302
(Vdate
p8303
Vdep
p8304
tp8305
a(Vthe
p8306
Vnsubj
p8307
tp8308
a(Vobserve
p8309
g18
tp8310
a(Vmark
p8311
Vccomp
p8312
tp8313
a(Vdepend
p8314
Vparataxis
p8315
tp8316
aa(lp8317
(Vplan
p8318
Vadvcl
p8319
tp8320
a(Vbefore
p8321
Vmark
p8322
tp8323
a(Vyou
p8324
Vnsubj
p8325
tp8326
a(Vcan
p8327
Vaux
p8328
tp8329
a(Vobserve
p8330
g18
tp8331
a(Vlesson
p8332
Vdobj
p8333
tp8334
aa(lp8335
(Vhusband
p8336
Vroot
p8337
tp8338
a(Vgirl
p8339
Vnsubj
p8340
tp8341
a(Vobserve
p8342
g18
tp8343
a(Vvrata
p8344
Vdobj
p8345
tp8346
a(Vobtain
p8347
Vdep
p8348
tp8349
a(Vdie
p8350
Vdep
p8351
tp8352
aa(lp8353
(Vmeasure
p8354
Vxcomp
p8355
tp8356
a(Vto
p8357
Vaux
p8358
tp8359
a(Vobserve
p8360
g18
tp8361
a(Vbehavior
p8362
Vdobj
p8363
tp8364
a(Vleave
p8365
Vadvcl
p8366
tp8367
aa(lp8368
(Vgraft
p8369
Vccomp
p8370
tp8371
a(Vculture
p8372
Vnsubj
p8373
tp8374
a(Vobserve
p8375
g18
tp8376
a(Vcelebrate
p8377
Vccomp
p8378
tp8379
aa(lp8380
(Vopportunity
p8381
Vinfmod
p8382
tp8383
a(Vto
p8384
Vaux
p8385
tp8386
a(Vobserve
p8387
g18
tp8388
a(Vrange
p8389
Vdobj
p8390
tp8391
aa(lp8392
(Vbe
p8393
Vparataxis
p8394
tp8395
a(Vhe
p8396
Vnsubj
p8397
tp8398
a(Vshe
p8399
Vnsubj
p8400
tp8401
a(Vcan
p8402
Vaux
p8403
tp8404
a(Vobserve
p8405
g18
tp8406
a(Vphenomenon
p8407
Vdobj
p8408
tp8409
a(Vlevel
p8410
Vprep_at
p8411
tp8412
aa(lp8413
(Vyou
p8414
Vxsubj
p8415
tp8416
a(Vneed
p8417
Vxcomp
p8418
tp8419
a(Vto
p8420
Vaux
p8421
tp8422
a(Vobserve
p8423
g18
tp8424
a(Vclosely
p8425
Vadvmod
p8426
tp8427
a(Vcompare
p8428
Vconj_and
p8429
tp8430
a(Vmake
p8431
Vconj_and
p8432
tp8433
a(Vuse
p8434
Vconj_and
p8435
tp8436
aa(lp8437
(Vprocedure
p8438
Vnsubj
p8439
tp8440
a(Vbe
p8441
Vconj_and
p8442
tp8443
a(Vobserve
p8444
g18
tp8445
a(Vinfluence
p8446
Vdobj
p8447
tp8448
aa(lp8449
(V16
p8450
Vroot
p8451
tp8452
a(Vas
p8453
Vmark
p8454
tp8455
a(Vwe
p8456
Vnsubj
p8457
tp8458
a(Vobserve
p8459
g18
tp8460
a(VTable
p8461
Vprep_from
p8462
tp8463
aa(lp8464
(Vexperiment
p8465
Vxsubj
p8466
tp8467
a(Vable
p8468
Vxcomp
p8469
tp8470
a(Vto
p8471
Vaux
p8472
tp8473
a(Vobserve
p8474
g18
tp8475
a(Vsample
p8476
Vdobj
p8477
tp8478
aa(lp8479
(Vattempt
p8480
Vinfmod
p8481
tp8482
a(Vto
p8483
Vaux
p8484
tp8485
a(Vobserve
p8486
g18
tp8487
a(Vnot
p8488
Vccomp
p8489
tp8490
a(Vleverage
p8491
Vccomp
p8492
tp8493
aa(lp8494
(Vthey
p8495
Vroot
p8496
tp8497
a(Vadmit
p8498
Vccomp
p8499
tp8500
a(Vobserve
p8501
g18
tp8502
a(Vthing
p8503
Vdobj
p8504
tp8505
a(g8495
Vnsubj
p8506
tp8507
aa(lp8508
(Vmake
p8509
Vprepc_from
p8510
tp8511
a(Vwhat
p8512
Vdobj
p8513
tp8514
a(Vone
p8515
Vnsubj
p8516
tp8517
a(Vwould
p8518
Vaux
p8519
tp8520
a(Vobserve
p8521
g18
tp8522
a(Vlook
p8523
Vxcomp
p8524
tp8525
aa(lp8526
(VRHA
p8527
Vxsubj
p8528
tp8529
a(Vprepare
p8530
Vxcomp
p8531
tp8532
a(Vto
p8533
Vaux
p8534
tp8535
a(Vobserve
p8536
g18
tp8537
a(Vthey
p8538
Vdobj
p8539
tp8540
aa(lp8541
(Vimpose
p8542
Vprepc_on
p8543
tp8544
a(Vwhat
p8545
Vdobj
p8546
tp8547
a(Vwe
p8548
Vnsubj
p8549
tp8550
a(Vshould
p8551
Vaux
p8552
tp8553
a(Vobserve
p8554
g18
tp8555
a(Vworld
p8556
Vprep_in
p8557
tp8558
aa(lp8559
(Vfact
p8560
Vrcmod
p8561
tp8562
a(Vobserve
p8563
g18
tp8564
a(Vthink
p8565
Vccomp
p8566
tp8567
aa(lp8568
(Vsolution
p8569
Vnsubj
p8570
tp8571
a(Vhop
p8572
Vconj_and
p8573
tp8574
a(Vobserve
p8575
g18
tp8576
a(Vbehavior
p8577
Vdobj
p8578
tp8579
aa(lp8580
(Vpoint
p8581
Vrcmod
p8582
tp8583
a(Vwhere
p8584
Vadvmod
p8585
tp8586
a(Vthey
p8587
Vnsubj
p8588
tp8589
a(Vcould
p8590
Vaux
p8591
tp8592
a(Vobserve
p8593
g18
tp8594
a(Vtarget
p8595
Vdobj
p8596
tp8597
a(Vday
p8598
Vprep_during
p8599
tp8600
aa(lp8601
(Vmake
p8602
Vxcomp
p8603
tp8604
a(Vto
p8605
Vaux
p8606
tp8607
a(Vobserve
p8608
g18
tp8609
a(Vpractice
p8610
Vdobj
p8611
tp8612
aa(lp8613
(Vgap
p8614
Vdobj
p8615
tp8616
a(g8614
Vrcmod
p8617
tp8618
a(Vwe
p8619
Vnsubj
p8620
tp8621
a(Vcan
p8622
Vaux
p8623
tp8624
a(Vobserve
p8625
g18
tp8626
a(Vdatum
p8627
Vprep_in
p8628
tp8629
a(Vdiscuss
p8630
Vadvcl
p8631
tp8632
aa(lp8633
(Vit
p8634
Vxsubj
p8635
tp8636
a(Vsuit
p8637
Vxcomp
p8638
tp8639
a(Vto
p8640
Vaux
p8641
tp8642
a(Vobserve
p8643
g18
tp8644
a(Vturmoil
p8645
Vdobj
p8646
tp8647
aa(lp8648
(Vwho
p8649
Vxsubj
p8650
tp8651
a(Vable
p8652
Vxcomp
p8653
tp8654
a(Vto
p8655
Vaux
p8656
tp8657
a(Vobserve
p8658
g18
tp8659
a(Vbird
p8660
Vdobj
p8661
tp8662
a(Vdisturb
p8663
Vprepc_without
p8664
tp8665
aa(lp8666
(Vto
p8667
Vaux
p8668
tp8669
a(Vobserve
p8670
g18
tp8671
a(Vcentenary
p8672
Vdobj
p8673
tp8674
a(Vissue
p8675
Vadvcl
p8676
tp8677
aa(lp8678
(Vworry
p8679
Vadvcl
p8680
tp8681
a(Vif
p8682
Vmark
p8683
tp8684
a(Vyou
p8685
Vnsubj
p8686
tp8687
a(Vcan
p8688
Vaux
p8689
tp8690
a(Vnot
p8691
Vneg
p8692
tp8693
a(Vobserve
p8694
g18
tp8695
aa(lp8696
(VI
p8697
Vxsubj
p8698
tp8699
a(Vable
p8700
Vxcomp
p8701
tp8702
a(Vto
p8703
Vaux
p8704
tp8705
a(Vobserve
p8706
g18
tp8707
a(Vhe
p8708
Vdobj
p8709
tp8710
a(Vclosely
p8711
Vadvmod
p8712
tp8713
aa(lp8714
(VSuchinda
p8715
Vxsubj
p8716
tp8717
a(Vinvite
p8718
Vxcomp
p8719
tp8720
a(Vto
p8721
Vaux
p8722
tp8723
a(Vobserve
p8724
g18
tp8725
a(Vexercise
p8726
Vdobj
p8727
tp8728
a(Vactivity
p8729
Vdobj
p8730
tp8731
a(Vmake
p8732
Vpartmod
p8733
tp8734
aa(lp8735
(Vfunction
p8736
Vroot
p8737
tp8738
a(Vscore
p8739
Vnsubj
p8740
tp8741
a(Vin
p8742
Vccomp
p8743
tp8744
a(Vtherefore
p8745
Vadvmod
p8746
tp8747
a(Vwe
p8748
Vnsubj
p8749
tp8750
a(Vobserve
p8751
g18
tp8752
a(Vregularity
p8753
Vdobj
p8754
tp8755
a(Vdo
p8756
Vadvcl
p8757
tp8758
a(Vsuggest
p8759
Vadvcl
p8760
tp8761
aa(lp8762
(Vrequire
p8763
Vccomp
p8764
tp8765
a(Vthat
p8766
Vmark
p8767
tp8768
a(Vchoreographer
p8769
Vnsubj
p8770
tp8771
a(Vclosely
p8772
Vadvmod
p8773
tp8774
a(Vobserve
p8775
g18
tp8776
a(Vcharacteristic
p8777
Vdobj
p8778
tp8779
a(Vidiosyncrasy
p8780
Vdobj
p8781
tp8782
a(Vmake
p8783
Vconj_and
p8784
tp8785
aa(lp8786
(VStreet
p8787
Vroot
p8788
tp8789
a(Vcogently
p8790
Vccomp
p8791
tp8792
a(Vsome
p8793
Vnsubj
p8794
tp8795
a(Vobserve
p8796
g18
tp8797
a(Vtrack
p8798
Vccomp
p8799
tp8800
a(Vpay
p8801
Vconj_and
p8802
tp8803
aa(lp8804
(Vwe
p8805
Vxsubj
p8806
tp8807
a(Vable
p8808
Vxcomp
p8809
tp8810
a(Vto
p8811
Vaux
p8812
tp8813
a(Vobserve
p8814
g18
tp8815
a(Vstructure
p8816
Vdobj
p8817
tp8818
aa(lp8819
(Vherd
p8820
Vroot
p8821
tp8822
a(Vfarm
p8823
Vnsubj
p8824
tp8825
a(Vcan
p8826
Vaux
p8827
tp8828
a(Vobserve
p8829
g18
tp8830
a(Vproduce
p8831
Vccomp
p8832
tp8833
aa(lp8834
(Vmake
p8835
Vxcomp
p8836
tp8837
a(Veffort
p8838
Vnsubj
p8839
tp8840
a(Vto
p8841
Vaux
p8842
tp8843
a(Vobserve
p8844
g18
tp8845
a(Vlegality
p8846
Vdobj
p8847
tp8848
aa(lp8849
(Vmember
p8850
Vxsubj
p8851
tp8852
a(Vfail
p8853
Vxcomp
p8854
tp8855
a(Vto
p8856
Vaux
p8857
tp8858
a(Vobserve
p8859
g18
tp8860
a(Vresponsibility
p8861
Vdobj
p8862
tp8863
aa(lp8864
(Vrequire
p8865
Vxcomp
p8866
tp8867
a(Vsolicitor
p8868
Vnsubj
p8869
tp8870
a(Vto
p8871
Vaux
p8872
tp8873
a(Vobserve
p8874
g18
tp8875
a(VCode
p8876
Vdobj
p8877
tp8878
a(Vcontact
p8879
Vprep_to
p8880
tp8881
a(Vlawyer
p8882
Vprep_with
p8883
tp8884
aa(lp8885
(Vfig
p8886
Vroot
p8887
tp8888
a(Vone
p8889
Vnsubj
p8890
tp8891
a(Vcan
p8892
Vaux
p8893
tp8894
a(Vobserve
p8895
g18
tp8896
a(Vcomplex
p8897
Vdobj
p8898
tp8899
a(Vadd
p8900
Vadvcl
p8901
tp8902
aa(lp8903
(Vhold
p8904
Vadvcl
p8905
tp8906
a(Vpoint
p8907
Vconj_and
p8908
tp8909
a(Vyou
p8910
Vnsubj
p8911
tp8912
a(Vshould
p8913
Vaux
p8914
tp8915
a(Vobserve
p8916
g18
tp8917
a(Vscalloped
p8918
Vccomp
p8919
tp8920
aa(lp8921
(Vsend
p8922
Vxcomp
p8923
tp8924
a(Vto
p8925
Vaux
p8926
tp8927
a(Vobserve
p8928
g18
tp8929
a(Vceasefire
p8930
Vdobj
p8931
tp8932
aa(lp8933
(Vundertaking
p8934
Vinfmod
p8935
tp8936
a(Vto
p8937
Vaux
p8938
tp8939
a(Vobserve
p8940
g18
tp8941
aa(lp8942
(Vfirm
p8943
Vroot
p8944
tp8945
a(Vwe
p8946
Vnsubj
p8947
tp8948
a(Vmay
p8949
Vaux
p8950
tp8951
a(Vobserve
p8952
g18
tp8953
a(Vfuture
p8954
Vprep_in
p8955
tp8956
a(Vtrend
p8957
Vdobj
p8958
tp8959
aa(lp8960
(Vgive
p8961
Vconj_and
p8962
tp8963
a(Vwe
p8964
Vnsubj
p8965
tp8966
a(Vmay
p8967
Vaux
p8968
tp8969
a(Vonly
p8970
Vadvmod
p8971
tp8972
a(Vobserve
p8973
g18
tp8974
a(Va
p8975
Vdobj
p8976
tp8977
aa(lp8978
(Vkeep
p8979
Vxcomp
p8980
tp8981
a(Veavesdrop
p8982
Vconj_and
p8983
tp8984
a(Vobserve
p8985
g18
tp8986
aa(lp8987
(VI
p8988
Vxsubj
p8989
tp8990
a(Vpause
p8991
Vxcomp
p8992
tp8993
a(Vto
p8994
Vaux
p8995
tp8996
a(Vobserve
p8997
g18
tp8998
a(Vtime
p8999
Vccomp
p9000
tp9001
aa(lp9002
(Vbe
p9003
Vdep
p9004
tp9005
a(Vyou
p9006
Vnsubj
p9007
tp9008
a(Vobserve
p9009
g18
tp9010
aa(lp9011
(VI
p9012
Vxsubj
p9013
tp9014
a(Vwelcome
p9015
Vxcomp
p9016
tp9017
a(Vto
p9018
Vaux
p9019
tp9020
a(Vobserve
p9021
g18
tp9022
a(Vspectacle
p9023
Vdobj
p9024
tp9025
a(Vtime
p9026
Vprep_at
p9027
tp9028
aa(lp9029
(Vinteresting
p9030
Vdep
p9031
tp9032
a(Vnote
p9033
Vconj_and
p9034
tp9035
a(Vto
p9036
Vaux
p9037
tp9038
a(Vobserve
p9039
g18
tp9040
a(Veffect
p9041
Vdobj
p9042
tp9043
a(Vhealth
p9044
Vprep_on
p9045
tp9046
aa(lp9047
(Vway
p9048
Vrcmod
p9049
tp9050
a(Vwe
p9051
Vnsubj
p9052
tp9053
a(Vlook
p9054
Vconj_and
p9055
tp9056
a(Vobserve
p9057
g18
tp9058
a(Vprocess
p9059
Vdobj
p9060
tp9061
aa(lp9062
(Vnominate
p9063
Vxcomp
p9064
tp9065
a(Vto
p9066
Vaux
p9067
tp9068
a(Vobserve
p9069
g18
tp9070
a(Vconduct
p9071
Vconj_or
p9072
tp9073
aa(lp9074
(Vfind
p9075
Vccomp
p9076
tp9077
a(Vwhether
p9078
Vmark
p9079
tp9080
a(Vcontemporary
p9081
Vnsubj
p9082
tp9083
a(Vobserve
p9084
g18
tp9085
a(Vpicture
p9086
Vdobj
p9087
tp9088
aa(lp9089
(Vlearn
p9090
Vxcomp
p9091
tp9092
a(Vto
p9093
Vaux
p9094
tp9095
a(Vobserve
p9096
g18
tp9097
aa(lp9098
(Vnurse
p9099
Vccomp
p9100
tp9101
a(Vshould
p9102
Vaux
p9103
tp9104
a(Vobserve
p9105
g18
tp9106
a(Vwound
p9107
Vdobj
p9108
tp9109
a(Vexcess
p9110
Vprep_for
p9111
tp9112
a(Vhaemorrhage
p9113
Vprep_for
p9114
tp9115
a(Vprotect
p9116
Vconj_and
p9117
tp9118
aa(lp9119
(Vhe
p9120
Vnsubj
p9121
tp9122
a(Vrecall
p9123
Vconj_and
p9124
tp9125
a(Vobserve
p9126
g18
tp9127
a(Vgo
p9128
Vccomp
p9129
tp9130
aa(lp9131
(Vplenty
p9132
Vinfmod
p9133
tp9134
a(Vto
p9135
Vaux
p9136
tp9137
a(Vobserve
p9138
g18
tp9139
a(Vchange
p9140
Vdobj
p9141
tp9142
a(Vwork
p9143
Vccomp
p9144
tp9145
aa(lp9146
(Vfederation
p9147
Vmark
p9148
tp9149
a(Vadvocate
p9150
Vccomp
p9151
tp9152
a(Vwe
p9153
Vnsubj
p9154
tp9155
a(Vobserve
p9156
g18
tp9157
a(Vlaw
p9158
Vdobj
p9159
tp9160
aa(lp9161
(Vadmire
p9162
Vdep
p9163
tp9164
a(Vobserve
p9165
g18
tp9166
a(Vthey
p9167
Vdobj
p9168
tp9169
a(Vuse
p9170
Vconj_and
p9171
tp9172
aa(lp9173
(Vable
p9174
Vccomp
p9175
tp9176
a(Vthat
p9177
Vmark
p9178
tp9179
a(Vwe
p9180
Vnsubj
p9181
tp9182
a(Vobserve
p9183
g18
tp9184
aa(lp9185
(Vescort
p9186
Vconj_but
p9187
tp9188
a(VI
p9189
Vnsubj
p9190
tp9191
a(Vshall
p9192
Vaux
p9193
tp9194
a(Vobserve
p9195
g18
tp9196
a(Vpropriety
p9197
Vdobj
p9198
tp9199
a(Vleave
p9200
Vprepc_by
p9201
tp9202
aa(lp9203
(Vsurprise
p9204
Vadvcl
p9205
tp9206
a(Vif
p9207
Vmark
p9208
tp9209
a(Vthey
p9210
Vnsubj
p9211
tp9212
a(Vobserve
p9213
g18
tp9214
a(Vsatisfy
p9215
Vccomp
p9216
tp9217
aa(lp9218
(Vattempt
p9219
Vroot
p9220
tp9221
a(Vwe
p9222
Vnsubj
p9223
tp9224
a(Vcan
p9225
Vaux
p9226
tp9227
a(Vobserve
p9228
g18
tp9229
a(Vtransition
p9230
Vdobj
p9231
tp9232
a(Vdegree
p9233
Vprep_to
p9234
tp9235
a(Vsociety
p9236
Vprep_in
p9237
tp9238
a(Vseem
p9239
Vconj_but
p9240
tp9241
a(Vbe
p9242
Vconj_and
p9243
tp9244
aa(lp9245
(Vuniverse
p9246
Vdobj
p9247
tp9248
a(g9246
Vrcmod
p9249
tp9250
a(Vwe
p9251
Vnsubj
p9252
tp9253
a(Vobserve
p9254
g18
tp9255
aa(lp9256
(Vcaretaker
p9257
Vroot
p9258
tp9259
a(Vthey
p9260
Vnsubj
p9261
tp9262
a(Vobserve
p9263
g18
tp9264
a(Vwoman
p9265
Vdobj
p9266
tp9267
a(g9257
Vprep_as
p9268
tp9269
aa(lp9270
(Vtenant
p9271
Vinfmod
p9272
tp9273
a(Vto
p9274
Vaux
p9275
tp9276
a(Vobserve
p9277
g18
tp9278
a(Vrestriction
p9279
Vdobj
p9280
tp9281
a(Vsubject
p9282
Vprepc_to
p9283
tp9284
aa(lp9285
(Vtry
p9286
Vxcomp
p9287
tp9288
a(Vto
p9289
Vaux
p9290
tp9291
a(Vobserve
p9292
g18
tp9293
a(Vtendency
p9294
Vdobj
p9295
tp9296
aa(lp9297
(Vjob
p9298
Vprep_for
p9299
tp9300
a(g9298
Vrcmod
p9301
tp9302
a(Vthey
p9303
Vnsubj
p9304
tp9305
a(Vobserve
p9306
g18
tp9307
a(Vrule
p9308
Vdobj
p9309
tp9310
aa(lp9311
(Vtake
p9312
Vxcomp
p9313
tp9314
a(Vpain
p9315
Vnsubj
p9316
tp9317
a(Vto
p9318
Vaux
p9319
tp9320
a(Vobserve
p9321
g18
tp9322
a(Vmotion
p9323
Vdobj
p9324
tp9325
a(Vhimself
p9326
Vprep_within
p9327
tp9328
aa(lp9329
(VCarolan
p9330
Vdep
p9331
tp9332
a(Vhint
p9333
Vconj_and
p9334
tp9335
a(Vwhen
p9336
Vadvmod
p9337
tp9338
a(Vchallenge
p9339
Vcsubj
p9340
tp9341
a(Vwould
p9342
Vaux
p9343
tp9344
a(Vobserve
p9345
g18
tp9346
a(Vloftily
p9347
Vadvmod
p9348
tp9349
a(Vspeak
p9350
Vccomp
p9351
tp9352
a(Vtrust
p9353
Vccomp
p9354
tp9355
aa(lp9356
(Vshe
p9357
Vxsubj
p9358
tp9359
a(Vhave
p9360
Vxcomp
p9361
tp9362
a(Vto
p9363
Vaux
p9364
tp9365
a(Vobserve
p9366
g18
tp9367
a(Vscene
p9368
Vdobj
p9369
tp9370
a(Vcheck
p9371
Vconj_and
p9372
tp9373
aa(lp9374
(Vmake
p9375
Vxcomp
p9376
tp9377
a(Vto
p9378
Vaux
p9379
tp9380
a(Vobserve
p9381
g18
tp9382
a(Vattend
p9383
Vconj_and
p9384
tp9385
aa(lp9386
(VSir
p9387
Vxsubj
p9388
tp9389
a(Vit
p9390
Vxsubj
p9391
tp9392
a(Vheartbreak
p9393
Vxcomp
p9394
tp9395
a(Vto
p9396
Vaux
p9397
tp9398
a(Vobserve
p9399
g18
tp9400
a(Vchild
p9401
Vdobj
p9402
tp9403
aa(lp9404
(Vlocate
p9405
Vdep
p9406
tp9407
a(Vwe
p9408
Vnsubj
p9409
tp9410
a(Vobserve
p9411
g18
tp9412
a(Vvillage
p9413
Vprep_in
p9414
tp9415
aa(lp9416
(Vwhen
p9417
Vadvmod
p9418
tp9419
a(Vunion
p9420
Vnsubj
p9421
tp9422
a(Vobserve
p9423
g18
tp9424
a(Vincrease
p9425
Vccomp
p9426
tp9427
a(Vlikely
p9428
Vadvcl
p9429
tp9430
aa(lp9431
(Vit
p9432
Vroot
p9433
tp9434
a(Vwant
p9435
Vadvcl
p9436
tp9437
a(Vobserve
p9438
g18
tp9439
a(g9432
Vnsubj
p9440
tp9441
aa(lp9442
(Vthing
p9443
Vdobj
p9444
tp9445
a(g9443
Vrcmod
p9446
tp9447
a(Vthey
p9448
Vnsubj
p9449
tp9450
a(Vobserve
p9451
g18
tp9452
a(Vprince
p9453
Vdobj
p9454
tp9455
a(Vdelight
p9456
Vprep_to
p9457
tp9458
aa(lp9459
(Vlocal
p9460
Vinfmod
p9461
tp9462
a(Vlike
p9463
Vmark
p9464
tp9465
a(Vto
p9466
Vaux
p9467
tp9468
a(Vobserve
p9469
g18
tp9470
aa(lp9471
(Vfailure
p9472
Vinfmod
p9473
tp9474
a(Vto
p9475
Vaux
p9476
tp9477
a(Vobserve
p9478
g18
tp9479
a(Vpractice
p9480
Vdobj
p9481
tp9482
aa(lp9483
(Vrespectively
p9484
Vroot
p9485
tp9486
a(Va
p9487
Vprep_in
p9488
tp9489
a(Vopponent
p9490
Vprep_in
p9491
tp9492
a(Vobserve
p9493
g18
tp9494
a(Vx
p9495
Vnsubj
p9496
tp9497
aa(lp9498
(Vsieu
p9499
Vroot
p9500
tp9501
a(VI
p9502
Vnsubj
p9503
tp9504
a(Vobserve
p9505
g18
tp9506
a(Vforeigner
p9507
Vccomp
p9508
tp9509
aa(lp9510
(Vstructure
p9511
Vdobj
p9512
tp9513
a(g9511
Vrcmod
p9514
tp9515
a(Vwe
p9516
Vnsubj
p9517
tp9518
a(Vobserve
p9519
g18
tp9520
a(Vwe
p9521
Vprep_around
p9522
tp9523
aa(lp9524
(Vexpect
p9525
Vxcomp
p9526
tp9527
a(Vyou
p9528
Vnsubj
p9529
tp9530
a(Vto
p9531
Vaux
p9532
tp9533
a(Vobserve
p9534
g18
tp9535
a(Vrule
p9536
Vdobj
p9537
tp9538
a(Vet
p9539
Vprep_as
p9540
tp9541
a(Vout
p9542
Vprep
p9543
tp9544
aa(lp9545
(Vaudience
p9546
Vxsubj
p9547
tp9548
a(Vask
p9549
Vxcomp
p9550
tp9551
a(Vto
p9552
Vaux
p9553
tp9554
a(Vobserve
p9555
g18
tp9556
a(Vsilence
p9557
Vdobj
p9558
tp9559
aa(lp9560
(Vrun
p9561
Vadvcl
p9562
tp9563
a(Vso
p9564
Vadvmod
p9565
tp9566
a(Vas
p9567
Vmark
p9568
tp9569
a(Vto
p9570
Vaux
p9571
tp9572
a(Vobserve
p9573
g18
tp9574
a(Vit
p9575
Vdobj
p9576
tp9577
a(Vcycle
p9578
Vprep_throughout
p9579
tp9580
aa(lp9581
(Vit
p9582
Vxsubj
p9583
tp9584
a(Vinteresting
p9585
Vxcomp
p9586
tp9587
a(Vto
p9588
Vaux
p9589
tp9590
a(Vobserve
p9591
g18
tp9592
a(Vconstraint
p9593
Vdobj
p9594
tp9595
a(Vrespect
p9596
Vprep_in
p9597
tp9598
aa(lp9599
(Vfailure
p9600
Vinfmod
p9601
tp9602
a(Vto
p9603
Vaux
p9604
tp9605
a(Vobserve
p9606
g18
tp9607
a(Veffect
p9608
Vdobj
p9609
tp9610
aa(lp9611
(VForge
p9612
Vroot
p9613
tp9614
a(Vpass
p9615
Vpartmod
p9616
tp9617
a(Vwe
p9618
Vnsubj
p9619
tp9620
a(Vobserve
p9621
g18
tp9622
a(Vresidence
p9623
Vdobj
p9624
tp9625
aa(lp9626
(Vfaith
p9627
Vroot
p9628
tp9629
a(Vmean
p9630
Vpartmod
p9631
tp9632
a(Vwe
p9633
Vnsubj
p9634
tp9635
a(Vcan
p9636
Vaux
p9637
tp9638
a(Vnow
p9639
Vadvmod
p9640
tp9641
a(Vobserve
p9642
g18
tp9643
a(Vpursuit
p9644
Vdobj
p9645
tp9646
aa(lp9647
(Vthey
p9648
Vxsubj
p9649
tp9650
a(Vable
p9651
Vxcomp
p9652
tp9653
a(Vto
p9654
Vaux
p9655
tp9656
a(Vobserve
p9657
g18
tp9658
a(Vchild
p9659
Vdobj
p9660
tp9661
aa(lp9662
(Vthemselves
p9663
Vroot
p9664
tp9665
a(Vvulture
p9666
Vnsubj
p9667
tp9668
a(Vobserve
p9669
g18
tp9670
a(Vaction
p9671
Vdobj
p9672
tp9673
a(Vdistance
p9674
Vprep_in
p9675
tp9676
a(Vthen
p9677
Vadvmod
p9678
tp9679
a(g9677
Vconj_and
p9680
tp9681
a(Vmove
p9682
Vdep
p9683
tp9684
aa(lp9685
(Vsuppose
p9686
Vxcomp
p9687
tp9688
a(Vto
p9689
Vaux
p9690
tp9691
a(Vobserve
p9692
g18
tp9693
a(Vobey
p9694
Vconj_and
p9695
tp9696
aa(lp9697
(Vit
p9698
Vxsubj
p9699
tp9700
a(Vgood
p9701
Vxcomp
p9702
tp9703
a(Vto
p9704
Vaux
p9705
tp9706
a(Vobserve
p9707
g18
tp9708
a(Vdiet
p9709
Vdobj
p9710
tp9711
aa(lp9712
(Vpeople
p9713
Vnsubj
p9714
tp9715
a(g9713
Vrcmod
p9716
tp9717
a(Vobserve
p9718
g18
tp9719
a(Vgroup
p9720
Vdobj
p9721
tp9722
a(Vread
p9723
Vconj_or
p9724
tp9725
aa(lp9726
(Vresult
p9727
Vroot
p9728
tp9729
a(Vthose
p9730
Vnsubj
p9731
tp9732
a(Vwill
p9733
Vaux
p9734
tp9735
a(Vobserve
p9736
g18
tp9737
a(Vauthority
p9738
Vccomp
p9739
tp9740
aa(lp9741
(Vmanifestation
p9742
Vdobj
p9743
tp9744
a(g9742
Vrcmod
p9745
tp9746
a(Vwe
p9747
Vnsubj
p9748
tp9749
a(Vobserve
p9750
g18
tp9751
a(Veuphoria
p9752
Vprep_in
p9753
tp9754
aa(lp9755
(Vsuggest
p9756
Vccomp
p9757
tp9758
a(Vthat
p9759
Vmark
p9760
tp9761
a(Vjoin
p9762
Vprepc_on
p9763
tp9764
a(Vemployee
p9765
Vnsubj
p9766
tp9767
a(Vobserve
p9768
g18
tp9769
a(Vresponse
p9770
Vdobj
p9771
tp9772
a(Vadopt
p9773
Vconj_and
p9774
tp9775
aa(lp9776
(Val
p9777
Vroot
p9778
tp9779
a(Vcynic
p9780
Vnsubj
p9781
tp9782
a(Vmight
p9783
Vaux
p9784
tp9785
a(Vobserve
p9786
g18
tp9787
a(Vexploit
p9788
Vccomp
p9789
tp9790
aa(lp9791
(Vwoman
p9792
Vxsubj
p9793
tp9794
a(Vregulate
p9795
Vxcomp
p9796
tp9797
a(Vto
p9798
Vaux
p9799
tp9800
a(Vobserve
p9801
g18
tp9802
a(Vrule
p9803
Vdobj
p9804
tp9805
aa(lp9806
(VHiscock
p9807
Vnsubj
p9808
tp9809
a(Vattempt
p9810
Vconj_and
p9811
tp9812
a(Vthereby
p9813
Vadvmod
p9814
tp9815
a(Vobserve
p9816
g18
tp9817
a(Vinteraction
p9818
Vdobj
p9819
tp9820
aa(lp9821
(Vborder
p9822
Vxcomp
p9823
tp9824
a(Vthey
p9825
Vnsubj
p9826
tp9827
a(Vto
p9828
Vaux
p9829
tp9830
a(Vobserve
p9831
g18
tp9832
a(Vstranger
p9833
Vdobj
p9834
tp9835
aa(lp9836
(Vprofessorsand
p9837
Vdobj
p9838
tp9839
a(g9837
Vrcmod
p9840
tp9841
a(Vthey
p9842
Vnsubj
p9843
tp9844
a(Vdo
p9845
Vaux
p9846
tp9847
a(Vfurther
p9848
Vadvmod
p9849
tp9850
a(Vobserve
p9851
g18
tp9852
a(Vready
p9853
Vccomp
p9854
tp9855
aa.